 zsh

 Timestamp is 3e93a94a (Wed Apr 09 07:02:02 2003)

 Preferred load address is 00400000

 Start         Length     Name                   Class
 0001:00000000 0003a3e0H .text                   CODE
 0002:00000000 0000029cH .idata$5                DATA
 0002:000002a0 00000074H .rdata                  DATA
 0002:00000314 00000050H .idata$2                DATA
 0002:00000364 00000014H .idata$3                DATA
 0002:00000378 0000029cH .idata$4                DATA
 0002:00000614 00000a18H .idata$6                DATA
 0002:0000102c 00000000H .edata                  DATA
 0003:00000000 00000004H .CRT$XCA                DATA
 0003:00000004 00000004H .CRT$XCZ                DATA
 0003:00000008 00000004H .CRT$XIA                DATA
 0003:0000000c 00000004H .CRT$XIC                DATA
 0003:00000010 00000004H .CRT$XIZ                DATA
 0003:00000020 00000084H .data                   DATA
 0003:000000a8 0000e2d8H .bss                    DATA
 0004:00000000 0000a31cH .fusrdata               DATA
 0005:00000000 000000b4H .rsrc$01                DATA
 0005:000000c0 00000300H .rsrc$02                DATA

  Address         Publics by Value              Rva+Base     Lib:Object

 0001:00000000       _execbuiltin               00401000 f   builtin.o
 0001:000003f8       _bin_enable                004013f8 f   builtin.o
 0001:0000051f       _bin_set                   0040151f f   builtin.o
 0001:0000081a       _bin_setopt                0040181a f   builtin.o
 0001:00000b14       _bin_fg                    00401b14 f   builtin.o
 0001:00000fa2       _bin_kill                  00401fa2 f   builtin.o
 0001:000012be       _bin_suspend               004022be f   builtin.o
 0001:00001372       _findjobnam                00402372 f   builtin.o
 0001:000013c4       _getjob                    004023c4 f   builtin.o
 0001:000014f3       _isanum                    004024f3 f   builtin.o
 0001:00001515       _bin_pwd                   00402515 f   builtin.o
 0001:0000155a       _bin_dirs                  0040255a f   builtin.o
 0001:0000162e       _bin_cd                    0040262e f   builtin.o
 0001:0000174f       _cd_get_dest               0040274f f   builtin.o
 0001:000019f5       _cd_do_chdir               004029f5 f   builtin.o
 0001:00001b58       _cd_able_vars              00402b58 f   builtin.o
 0001:00001b9f       _cd_try_chdir              00402b9f f   builtin.o
 0001:00001e98       _cd_new_pwd                00402e98 f   builtin.o
 0001:000020b4       _printdirstack             004030b4 f   builtin.o
 0001:000020f9       _fixdir                    004030f9 f   builtin.o
 0001:000021c5       _bin_compctl               004031c5 f   builtin.o
 0001:000023ad       _get_compctl               004033ad f   builtin.o
 0001:00002b04       _get_xcompctl              00403b04 f   builtin.o
 0001:00003031       _cc_assign                 00404031 f   builtin.o
 0001:000031a8       _cc_reassign               004041a8 f   builtin.o
 0001:000031d8       _compctl_process           004041d8 f   builtin.o
 0001:0000326a       _compctl_process_cc        0040426a f   builtin.o
 0001:000032e6       _printcompctl              004042e6 f   builtin.o
 0001:0000365c       _printcompctlp             0040465c f   builtin.o
 0001:00003673       _printqt                   00404673 f   builtin.o
 0001:000036a9       _printif                   004046a9 f   builtin.o
 0001:000036d1       _bin_fc                    004046d1 f   builtin.o
 0001:00003a21       _fcgetcomm                 00404a21 f   builtin.o
 0001:00003a83       _fcsubs                    00404a83 f   builtin.o
 0001:00003b68       _fclist                    00404b68 f   builtin.o
 0001:00003d6f       _fcedit                    00404d6f f   builtin.o
 0001:00003dbc       _bin_typeset               00404dbc f   builtin.o
 0001:00004326       _bin_functions             00405326 f   builtin.o
 0001:00004516       _bin_unset                 00405516 f   builtin.o
 0001:00004631       _bin_vared                 00405631 f   builtin.o
 0001:00004800       _bin_whence                00405800 f   builtin.o
 0001:00004b7b       _bin_hash                  00405b7b f   builtin.o
 0001:00004d40       _bin_unhash                00405d40 f   builtin.o
 0001:00004e83       _bin_alias                 00405e83 f   builtin.o
 0001:0000502b       _bin_unlimit               0040602b f   builtin.o
 0001:0000502b       _bin_ulimit                0040602b f   builtin.o
 0001:0000502b       _bin_limit                 0040602b f   builtin.o
 0001:00005044       _bin_false                 00406044 f   builtin.o
 0001:00005048       _bin_print                 00406048 f   builtin.o
 0001:00005599       _bin_echotc                00406599 f   builtin.o
 0001:000056f5       _bin_shift                 004066f5 f   builtin.o
 0001:00005851       _bin_getopts               00406851 f   builtin.o
 0001:00005b12       _bin_break                 00406b12 f   builtin.o
 0001:00005c00       _zexit                     00406c00 f   builtin.o
 0001:00005d08       _bin_dot                   00406d08 f   builtin.o
 0001:00005faa       _bin_emulate               00406faa f   builtin.o
 0001:00005fc3       _bin_eval                  00406fc3 f   builtin.o
 0001:00006036       _bin_read                  00407036 f   builtin.o
 0001:000068e3       _zread                     004078e3 f   builtin.o
 0001:00006938       _bin_sched                 00407938 f   builtin.o
 0001:00006b79       _testlex                   00407b79 f   builtin.o
 0001:00006c5d       _bin_test                  00407c5d f   builtin.o
 0001:00006d1e       _bin_trap                  00407d1e f   builtin.o
 0001:00006f11       _bin_ttyctl                00407f11 f   builtin.o
 0001:00006f57       _bin_let                   00407f57 f   builtin.o
 0001:00006f82       _bin_umask                 00407f82 f   builtin.o
 0001:00007199       _getasg                    00408199 f   builtin.o
 0001:000071e7       _getsignum                 004081e7 f   builtin.o
 0001:00007238       _zgetcwd                   00408238 f   compat.o
 0001:00007448       _evalcond                  00408448 f   cond.o
 0001:00007820       _doaccess                  00408820 f   cond.o
 0001:0000783c       _getstat                   0040883c f   cond.o
 0001:0000788a       _dostat                    0040888a f   cond.o
 0001:000078a1       _optison                   004088a1 f   cond.o
 0001:000078f5       _parse_string              004088f5 f   exec.o
 0001:00007934       _zfork                     00408934 f   exec.o
 0001:0000796d       _execcursh                 0040896d f   exec.o
 0001:000079ae       _zexecve                   004089ae f   exec.o
 0001:00007bc4       _isgooderr                 00408bc4 f   exec.o
 0001:00007bf1       _execute                   00408bf1 f   exec.o
 0001:00008039       _findcmd                   00409039 f   exec.o
 0001:00008200       _iscom                     00409200 f   exec.o
 0001:0000821a       _isrelative                0040921a f   exec.o
 0001:0000826a       _hashcmd                   0040926a f   exec.o
 0001:00008349       _execstring                00409349 f   exec.o
 0001:00008372       _execlist                  00409372 f   exec.o
 0001:0000852f       _execpline                 0040952f f   exec.o
 0001:000089ee       _execpline2                004099ee f   exec.o
 0001:00008bc9       _makecline                 00409bc9 f   exec.o
 0001:00008c8f       _untokenize                00409c8f f   exec.o
 0001:00008cca       _clobber_open              00409cca f   exec.o
 0001:00008d9b       _closemn                   00409d9b f   exec.o
 0001:00008f69       _closemnodes               00409f69 f   exec.o
 0001:00008fab       _closeallelse              00409fab f   exec.o
 0001:00008fe3       _addfd                     00409fe3 f   exec.o
 0001:0000912c       _addvars                   0040a12c f   exec.o
 0001:000093a2       _execcmd                   0040a3a2 f   exec.o
 0001:0000ab0f       _save_params               0040bb0f f   exec.o
 0001:0000ac29       _restore_params            0040bc29 f   exec.o
 0001:0000acec       _fixfds                    0040bcec f   exec.o
 0001:0000ad22       _entersubsh                0040bd22 f   exec.o
 0001:0000af0f       _closem                    0040bf0f f   exec.o
 0001:0000af49       _gethere                   0040bf49 f   exec.o
 0001:0000b06a       _getherestr                0040c06a f   exec.o
 0001:0000b0fc       _getoutput                 0040c0fc f   exec.o
 0001:0000b373       _readoutput                0040c373 f   exec.o
 0001:0000b48e       _parsecmd                  0040c48e f   exec.o
 0001:0000b4e5       _getoutputfile             0040c4e5 f   exec.o
 0001:0000b693       _getproc                   0040c693 f   exec.o
 0001:0000b6ab       _getpipe                   0040c6ab f   exec.o
 0001:0000b74e       _mpipe                     0040c74e f   exec.o
 0001:0000b772       _spawnpipes                0040c772 f   exec.o
 0001:0000b7a3       _execcond                  0040c7a3 f   exec.o
 0001:0000b7b6       _execarith                 0040c7b6 f   exec.o
 0001:0000b7ef       _exectime                  0040c7ef f   exec.o
 0001:0000b824       _execfuncdef               0040c824 f   exec.o
 0001:0000b915       _execshfunc                0040c915 f   exec.o
 0001:0000ba2c       _doshfunc                  0040ca2c f   exec.o
 0001:0000bd6d       _getfpfunc                 0040cd6d f   exec.o
 0001:0000bebd       _cancd                     0040cebd f   exec.o
 0001:0000bfe8       _cancd2                    0040cfe8 f   exec.o
 0001:0000c040       _execsave                  0040d040 f   exec.o
 0001:0000c111       _execrestore               0040d111 f   exec.o
 0001:0000c1df       _glob                      0040d1df f   glob.o
 0001:0000ca69       _qgetnum                   0040da69 f   glob.o
 0001:0000caaf       _qgetoctnum                0040daaf f   glob.o
 0001:0000caf9       _notstrcmp                 0040daf9 f   glob.o
 0001:0000cc37       _insert                    0040dc37 f   glob.o
 0001:0000ce3e       _file_type                 0040de3e f   glob.o
 0001:0000ce6a       _haswilds                  0040de6a f   glob.o
 0001:0000cf2b       _hasbraces                 0040df2b f   glob.o
 0001:0000d0f2       _xpandredir                0040e0f2 f   glob.o
 0001:0000d271       _dyncat                    0040e271 f   glob.o
 0001:0000d2b3       _tricat                    0040e2b3 f   glob.o
 0001:0000d301       _xpandbraces               0040e301 f   glob.o
 0001:0000d6da       _matchpat                  0040e6da f   glob.o
 0001:0000d742       _get_match_ret             0040e742 f   glob.o
 0001:0000d8af       _getmatch                  0040e8af f   glob.o
 0001:0000dd9b       _getfullpath               0040ed9b f   glob.o
 0001:0000ddd1       _scanner                   0040edd1 f   glob.o
 0001:0000e18d       _domatch                   0040f18d f   glob.o
 0001:0000e1b6       _excluded                  0040f1b6 f   glob.o
 0001:0000e20d       _doesmatch                 0040f20d f   glob.o
 0001:0000e783       _parsepat                  0040f783 f   glob.o
 0001:0000e79f       _parsereg                  0040f79f f   glob.o
 0001:0000e7cc       _parsecomplist             0040f7cc f   glob.o
 0001:0000e99d       _parsecomp                 0040f99d f   glob.o
 0001:0000ed74       _parsecompsw               0040fd74 f   glob.o
 0001:0000ee44       _tokenize                  0040fe44 f   glob.o
 0001:0000efa4       _remnulargs                0040ffa4 f   glob.o
 0001:0000efdc       _qualdev                   0040ffdc f   glob.o
 0001:0000efec       _qualnlink                 0040ffec f   glob.o
 0001:0000f021       _qualuid                   00410021 f   glob.o
 0001:0000f033       _qualgid                   00410033 f   glob.o
 0001:0000f045       _qualisdev                 00410045 f   glob.o
 0001:0000f045       _qualischar                00410045 f   glob.o
 0001:0000f05c       _qualmode                  0041005c f   glob.o
 0001:0000f073       _qualflags                 00410073 f   glob.o
 0001:0000f080       _qualeqflags               00410080 f   glob.o
 0001:0000f097       _qualiscom                 00410097 f   glob.o
 0001:0000f0ae       _qualsize                  004100ae f   glob.o
 0001:0000f107       _qualtime                  00410107 f   glob.o
 0001:0000f1a5       _hasher                    004101a5 f   hashtable.o
 0001:0000f1bd       _newhashtable              004101bd f   hashtable.o
 0001:0000f1e7       _addhashnode               004101e7 f   hashtable.o
 0001:0000f2a0       _gethashnode               004102a0 f   hashtable.o
 0001:0000f2e4       _gethashnode2              004102e4 f   hashtable.o
 0001:0000f31d       _removehashnode            0041031d f   hashtable.o
 0001:0000f386       _disablehashnode           00410386 f   hashtable.o
 0001:0000f38f       _enablehashnode            0041038f f   hashtable.o
 0001:0000f398       _hnamcmp                   00410398 f   hashtable.o
 0001:0000f3b2       _scanhashtable             004103b2 f   hashtable.o
 0001:0000f590       _scanmatchtable            00410590 f   hashtable.o
 0001:0000f6d6       _expandhashtable           004106d6 f   hashtable.o
 0001:0000f745       _emptyhashtable            00410745 f   hashtable.o
 0001:0000f7c0       _createcmdnamtable         004107c0 f   hashtable.o
 0001:0000f853       _emptycmdnamtable          00410853 f   hashtable.o
 0001:0000f86e       _hashdir                   0041086e f   hashtable.o
 0001:0000f992       _fillcmdnamtable           00410992 f   hashtable.o
 0001:0000f9b2       _freecmdnamnode            004109b2 f   hashtable.o
 0001:0000f9db       _printcmdnamnode           004109db f   hashtable.o
 0001:0000fb19       _createshfunctable         00410b19 f   hashtable.o
 0001:0000fba0       _removeshfuncnode          00410ba0 f   hashtable.o
 0001:0000fbeb       _disableshfuncnode         00410beb f   hashtable.o
 0001:0000fc31       _enableshfuncnode          00410c31 f   hashtable.o
 0001:0000fc83       _freeshfuncnode            00410c83 f   hashtable.o
 0001:0000fcab       _printshfuncnode           00410cab f   hashtable.o
 0001:0000fd93       _createbuiltintable        00410d93 f   hashtable.o
 0001:0000fe3a       _printbuiltinnode          00410e3a f   hashtable.o
 0001:0000fe71       _createreswdtable          00410e71 f   hashtable.o
 0001:0000ff18       _printreswdnode            00410f18 f   hashtable.o
 0001:0000ff4f       _createaliastable          00410f4f f   hashtable.o
 0001:00010042       _createaliasnode           00411042 f   hashtable.o
 0001:0001005d       _printaliasnode            0041105d f   hashtable.o
 0001:00010167       _freeparamnode             00411167 f   hashtable.o
 0001:00010181       _printparamnode            00411181 f   hashtable.o
 0001:00010322       _createnameddirtable       00411322 f   hashtable.o
 0001:000103bc       _emptynameddirtable        004113bc f   hashtable.o
 0001:000103dc       _addnameddirnode           004113dc f   hashtable.o
 0001:00010417       _removenameddirnode        00411417 f   hashtable.o
 0001:00010439       _freenameddirnode          00411439 f   hashtable.o
 0001:00010439       _freealiasnode             00411439 f   hashtable.o
 0001:0001045b       _printnameddirnode         0041145b f   hashtable.o
 0001:000104b3       _createcompctltable        004114b3 f   hashtable.o
 0001:00010531       _freecompctl               00411531 f   hashtable.o
 0001:000105f9       _freecompctlp              004115f9 f   hashtable.o
 0001:0001061b       _createemkeybindtable      0041161b f   hashtable.o
 0001:00010699       _emptyemkeybindtable       00411699 f   hashtable.o
 0001:000106a7       _createvikeybindtable      004116a7 f   hashtable.o
 0001:00010725       _emptyvikeybindtable       00411725 f   hashtable.o
 0001:00010733       _hwaddc                    00411733 f   hist.o
 0001:000107bb       _addtoline                 004117bb f   hist.o
 0001:0001088e       _hgetc                     0041188e f   hist.o
 0001:00010957       _safeinungetc              00411957 f   hist.o
 0001:00010973       _getsubsargs               00411973 f   hist.o
 0001:000109f9       _getargc                   004119f9 f   hist.o
 0001:00010a09       _histsubchar               00411a09 f   hist.o
 0001:000110d5       _hungetc                   004120d5 f   hist.o
 0001:000111c9       _strinbeg                  004121c9 f   hist.o
 0001:000111d9       _strinend                  004121d9 f   hist.o
 0001:000111f6       _hbegin                    004121f6 f   hist.o
 0001:000112e5       _hend                      004122e5 f   hist.o
 0001:0001157f       _remhist                   0041257f f   hist.o
 0001:000115cb       _hwbegin                   004125cb f   hist.o
 0001:00011622       _hwend                     00412622 f   hist.o
 0001:000116cd       _histbackword              004126cd f   hist.o
 0001:000116fb       _hwget                     004126fb f   hist.o
 0001:00011739       _hwrep                     00412739 f   hist.o
 0001:000117a7       _hgetline                  004127a7 f   hist.o
 0001:000117e7       _getargspec                004127e7 f   hist.o
 0001:00011880       _hconsearch                00412880 f   hist.o
 0001:000118dc       _hcomsearch                004128dc f   hist.o
 0001:0001191d       _remtpath                  0041291d f   hist.o
 0001:00011949       _remtext                   00412949 f   hist.o
 0001:0001196f       _rembutext                 0041296f f   hist.o
 0001:0001199e       _remlpaths                 0041299e f   hist.o
 0001:000119ca       _makeuppercase             004129ca f   hist.o
 0001:000119eb       _makelowercase             004129eb f   hist.o
 0001:00011a0c       _makecapitals              00412a0c f   hist.o
 0001:00011a61       _subst                     00412a61 f   hist.o
 0001:00011b0c       _convamps                  00412b0c f   hist.o
 0001:00011b87       _quietgethist              00412b87 f   hist.o
 0001:00011be9       _quietgetevent             00412be9 f   hist.o
 0001:00011bfd       _gethist                   00412bfd f   hist.o
 0001:00011c29       _getargs                   00412c29 f   hist.o
 0001:00011c7e       _upcase                    00412c7e f   hist.o
 0001:00011c9c       _downcase                  00412c9c f   hist.o
 0001:00011cba       _quote                     00412cba f   hist.o
 0001:00011d6a       _quotebreak                00412d6a f   hist.o
 0001:00011deb       _hdynread2                 00412deb f   hist.o
 0001:00011e60       _inithist                  00412e60 f   hist.o
 0001:00011e7a       _resizehistents            00412e7a f   hist.o
 0001:00011f4b       _readhistfile              00412f4b f   hist.o
 0001:000121eb       _savehistfile              004131eb f   hist.o
 0001:00012537       _firsthist                 00413537 f   hist.o
 0001:0001257c       _main                      0041357c f   init.o
 0001:00012773       _loop                      00413773 f   init.o
 0001:000128ba       _emulate                   004138ba f   init.o
 0001:00012946       _parseargs                 00413946 f   init.o
 0001:00012bbe       _init_io                   00413bbe f   init.o
 0001:00012c49       _init_shout                00413c49 f   init.o
 0001:00012c6c       _init_term                 00413c6c f   init.o
 0001:00012e1a       _setupvals                 00413e1a f   init.o
 0001:00013217       _init_signals              00414217 f   init.o
 0001:00013309       _run_init_scripts          00414309 f   init.o
 0001:0001346b       _init_misc                 0041446b f   init.o
 0001:000134fe       _source                    004144fe f   init.o
 0001:00013635       _sourcehome                00414635 f   init.o
 0001:000136f7       _compctlsetup              004146f7 f   init.o
 0001:00013783       _ingetc                    00414783 f   input.o
 0001:00013807       _inputline                 00414807 f   input.o
 0001:00013a6e       _inputsetline              00414a6e f   input.o
 0001:00013abe       _inungetc                  00414abe f   input.o
 0001:00013b69       _stuff                     00414b69 f   input.o
 0001:00013c42       _inerrflush                00414c42 f   input.o
 0001:00013c65       _inpush                    00414c65 f   input.o
 0001:00013d8f       _inpoptop                  00414d8f f   input.o
 0001:00013e1f       _inpop                     00414e1f f   input.o
 0001:00013e34       _dtime                     00414e34 f   jobs.o
 0001:00013e5f       _makerunning               00414e5f f   jobs.o
 0001:00013e88       _findproc                  00414e88 f   jobs.o
 0001:00013ece       _update_process            00414ece f   jobs.o
 0001:00013f1e       _update_job                00414f1e f   jobs.o
 0001:000140f6       _printjob                  004150f6 f   jobs.o
 0001:0001451e       _deletefilelist            0041551e f   jobs.o
 0001:0001455a       _deletejob                 0041555a f   jobs.o
 0001:000145a9       _setprevjob                004155a9 f   jobs.o
 0001:0001461a       _addproc                   0041561a f   jobs.o
 0001:0001469c       _havefiles                 0041569c f   jobs.o
 0001:000146bd       _waitforpid                004156bd f   jobs.o
 0001:00014736       _waitjob                   00415736 f   jobs.o
 0001:000148dd       _waitjobs                  004158dd f   jobs.o
 0001:000148f4       _clearjobtab               004158f4 f   jobs.o
 0001:00014939       _initjob                   00415939 f   jobs.o
 0001:00014996       _spawnjob                  00415996 f   jobs.o
 0001:00014a9d       _should_report_time        00415a9d f   jobs.o
 0001:00014b0d       _printhhmmss               00415b0d f   jobs.o
 0001:00014b92       _printtime                 00415b92 f   jobs.o
 0001:00014d52       _dumptime                  00415d52 f   jobs.o
 0001:00014d8a       _scanjobs                  00415d8a f   jobs.o
 0001:00014db0       _checkjobs                 00415db0 f   jobs.o
 0001:00014e0c       _lexsave                   00415e0c f   lex.o
 0001:00014f18       _lexrestore                00415f18 f   lex.o
 0001:00015036       _yylex                     00416036 f   lex.o
 0001:00015167       _ctxtlex                   00416167 f   lex.o
 0001:00015229       _initlextabs               00416229 f   lex.o
 0001:000152dd       _lexinit                   004162dd f   lex.o
 0001:00015308       _add                       00416308 f   lex.o
 0001:0001536a       _gettok                    0041636a f   lex.o
 0001:000159d9       _gettokstr                 004169d9 f   lex.o
 0001:0001642c       _dquote_parse              0041742c f   lex.o
 0001:00016921       _parsestr                  00417921 f   lex.o
 0001:000169e5       _parse_subst_string        004179e5 f   lex.o
 0001:00016a86       _exalias                   00417a86 f   lex.o
 0001:00016ccb       _skipcomm                  00417ccb f   lex.o
 0001:00016e8c       _newlinklist               00417e8c f   linklist.o
 0001:00016e9c       _insertlinknode            00417e9c f   linklist.o
 0001:00016ed4       _insertlinklist            00417ed4 f   linklist.o
 0001:00016f06       _getlinknode               00417f06 f   linklist.o
 0001:00016f35       _ugetnode                  00417f35 f   linklist.o
 0001:00016f59       _remnode                   00417f59 f   linklist.o
 0001:00016f8e       _uremnode                  00417f8e f   linklist.o
 0001:00016fb5       _freelinklist              00417fb5 f   linklist.o
 0001:00016ff1       _countlinknodes            00417ff1 f   linklist.o
 0001:00017003       _rolllist                  00418003 f   linklist.o
 0001:0001702c       _execfor                   0041802c f   loop.o
 0001:0001710d       _execselect                0041810d f   loop.o
 0001:00017334       _execwhile                 00418334 f   loop.o
 0001:00017407       _execrepeat                00418407 f   loop.o
 0001:000174b2       _execif                    004184b2 f   loop.o
 0001:00017533       _execcase                  00418533 f   loop.o
 0001:000175b5       _zzlex                     004185b5 f   math.o
 0001:00017b94       _getcvar                   00418b94 f   math.o
 0001:00017bc3       _setvar                    00418bc3 f   math.o
 0001:00017c0a       _notzero                   00418c0a f   math.o
 0001:00017c28       _op                        00418c28 f   math.o
 0001:00018558       _bop                       00419558 f   math.o
 0001:00018599       _mathevall                 00419599 f   math.o
 0001:0001873e       _matheval                  0041973e f   math.o
 0001:0001878e       _mathevalarg               0041978e f   math.o
 0001:000187bd       _mathparse                 004197bd f   math.o
 0001:00018940       _global_heapalloc          00419940 f   mem.o
 0001:00018964       _global_permalloc          00419964 f   mem.o
 0001:00018985       _pushheap                  00419985 f   mem.o
 0001:000189ac       _freeheap                  004199ac f   mem.o
 0001:000189cb       _popheap                   004199cb f   mem.o
 0001:00018a22       _halloc                    00419a22 f   mem.o
 0001:00018aec       _hcalloc                   00419aec f   mem.o
 0001:00018b0b       _hrealloc                  00419b0b f   mem.o
 0001:00018b2c       _zalloc                    00419b2c f   mem.o
 0001:00018b5a       _zcalloc                   00419b5a f   mem.o
 0001:00018b9c       _zrealloc                  00419b9c f   mem.o
 0001:00018beb       _dupstring                 00419beb f   mem.o
 0001:00018c19       _ztrdup                    00419c19 f   mem.o
 0001:00018c46       _zsfree                    00419c46 f   mem.o
 0001:00018c46       _zfree                     00419c46 f   mem.o
 0001:00018c58       _createparamtable          00419c58 f   params.o
 0001:00019173       _createparam               0041a173 f   params.o
 0001:000192c2       _isident                   0041a2c2 f   params.o
 0001:00019352       _getarg                    0041a352 f   params.o
 0001:00019a2c       _getindex                  0041aa2c f   params.o
 0001:00019be9       _getvalue                  0041abe9 f   params.o
 0001:00019e30       _getstrvalue               0041ae30 f   params.o
 0001:00019fd6       _getarrvalue               0041afd6 f   params.o
 0001:0001a0bb       _getintvalue               0041b0bb f   params.o
 0001:0001a0f8       _setstrvalue               0041b0f8 f   params.o
 0001:0001a31d       _setintvalue               0041b31d f   params.o
 0001:0001a391       _setarrvalue               0041b391 f   params.o
 0001:0001a50c       _getiparam                 0041b50c f   params.o
 0001:0001a527       _getsparam                 0041b527 f   params.o
 0001:0001a542       _getaparam                 0041b542 f   params.o
 0001:0001a57c       _setsparam                 0041b57c f   params.o
 0001:0001a67c       _setaparam                 0041b67c f   params.o
 0001:0001a787       _setiparam                 0041b787 f   params.o
 0001:0001a7f0       _unsetparam                0041b7f0 f   params.o
 0001:0001a80e       _unsetparam_pm             0041b80e f   params.o
 0001:0001a90e       _intgetfn                  0041b90e f   params.o
 0001:0001a916       _intsetfn                  0041b916 f   params.o
 0001:0001a922       _strgetfn                  0041b922 f   params.o
 0001:0001a936       _strsetfn                  0041b936 f   params.o
 0001:0001a95c       _arrgetfn                  0041b95c f   params.o
 0001:0001a96d       _arrsetfn                  0041b96d f   params.o
 0001:0001a99c       _nullsetfn                 0041b99c f   params.o
 0001:0001a9a7       _intvarsetfn               0041b9a7 f   params.o
 0001:0001a9b5       _zlevarsetfn               0041b9b5 f   params.o
 0001:0001a9e3       _strvarsetfn               0041b9e3 f   params.o
 0001:0001a9fb       _strvargetfn               0041b9fb f   params.o
 0001:0001aa11       _arrvargetfn               0041ba11 f   params.o
 0001:0001aa11       _intvargetfn               0041ba11 f   params.o
 0001:0001aa1b       _arrvarsetfn               0041ba1b f   params.o
 0001:0001aa6d       _uniqarray                 0041ba6d f   params.o
 0001:0001aade       _poundgetfn                0041bade f   params.o
 0001:0001aaeb       _randomgetfn               0041baeb f   params.o
 0001:0001aaf7       _randomsetfn               0041baf7 f   params.o
 0001:0001ab03       _secondsgetfn              0041bb03 f   params.o
 0001:0001ab13       _secondssetfn              0041bb13 f   params.o
 0001:0001ab2d       _usernamegetfn             0041bb2d f   params.o
 0001:0001ab32       _gidgetfn                  0041bb32 f   params.o
 0001:0001ab32       _uidgetfn                  0041bb32 f   params.o
 0001:0001ab32       _egidgetfn                 0041bb32 f   params.o
 0001:0001ab32       _euidgetfn                 0041bb32 f   params.o
 0001:0001ab37       _attachtty                 0041bb37 f   params.o
 0001:0001ab37       _shelltime                 0041bb37 f   params.o
 0001:0001ab37       _setterm                   0041bb37 f   params.o
 0001:0001ab37       _gidsetfn                  0041bb37 f   params.o
 0001:0001ab37       __setargv                  0041bb37 f   params.o
 0001:0001ab37       _gettyinfo                 0041bb37 f   params.o
 0001:0001ab37       _uidsetfn                  0041bb37 f   params.o
 0001:0001ab37       _usernamesetfn             0041bb37 f   params.o
 0001:0001ab37       _settyinfo                 0041bb37 f   params.o
 0001:0001ab37       _egidsetfn                 0041bb37 f   params.o
 0001:0001ab37       _dowatch                   0041bb37 f   params.o
 0001:0001ab37       _setcbreak                 0041bb37 f   params.o
 0001:0001ab37       _fillnameddirtable         0041bb37 f   params.o
 0001:0001ab37       _euidsetfn                 0041bb37 f   params.o
 0001:0001ab38       _ttyidlegetfn              0041bb38 f   params.o
 0001:0001ab6a       _ifsgetfn                  0041bb6a f   params.o
 0001:0001ab70       _ifssetfn                  0041bb70 f   params.o
 0001:0001ab8a       _setlang                   0041bb8a f   params.o
 0001:0001abd3       _lc_allsetfn               0041bbd3 f   params.o
 0001:0001ac0a       _langsetfn                 0041bc0a f   params.o
 0001:0001ac24       _lcsetfn                   0041bc24 f   params.o
 0001:0001ac6f       _histsizegetfn             0041bc6f f   params.o
 0001:0001ac75       _histsizesetfn             0041bc75 f   params.o
 0001:0001ac90       _errnogetfn                0041bc90 f   params.o
 0001:0001ac99       _dashgetfn                 0041bc99 f   params.o
 0001:0001ad09       _histcharsgetfn            0041bd09 f   params.o
 0001:0001ad34       _histcharssetfn            0041bd34 f   params.o
 0001:0001ad8b       _homegetfn                 0041bd8b f   params.o
 0001:0001ad91       _homesetfn                 0041bd91 f   params.o
 0001:0001adea       _wordcharsgetfn            0041bdea f   params.o
 0001:0001adf0       _wordcharssetfn            0041bdf0 f   params.o
 0001:0001ae0a       _underscoregetfn           0041be0a f   params.o
 0001:0001ae10       _termgetfn                 0041be10 f   params.o
 0001:0001ae16       _termsetfn                 0041be16 f   params.o
 0001:0001ae55       _arrfixenv                 0041be55 f   params.o
 0001:0001af0b       _zgetenv                   0041bf0b f   params.o
 0001:0001af44       _replenv                   0041bf44 f   params.o
 0001:0001b00b       _mkenvstr                  0041c00b f   params.o
 0001:0001b07b       _addenv                    0041c07b f   params.o
 0001:0001b11a       _delenv                    0041c11a f   params.o
 0001:0001b184       _convbase                  0041c184 f   params.o
 0001:0001b20f       _parse_event               0041c20f f   parse.o
 0001:0001b22d       _par_event                 0041c22d f   parse.o
 0001:0001b360       _parse_list                0041c360 f   parse.o
 0001:0001b38f       _par_list                  0041c38f f   parse.o
 0001:0001b428       _par_list1                 0041c428 f   parse.o
 0001:0001b44f       _par_sublist               0041c44f f   parse.o
 0001:0001b4ce       _par_sublist2              0041c4ce f   parse.o
 0001:0001b50e       _par_pline                 0041c50e f   parse.o
 0001:0001b62f       _par_cmd                   0041c62f f   parse.o
 0001:0001b90a       _par_for                   0041c90a f   parse.o
 0001:0001ba91       _par_case                  0041ca91 f   parse.o
 0001:0001be0e       _par_if                    0041ce0e f   parse.o
 0001:0001c157       _par_while                 0041d157 f   parse.o
 0001:0001c20a       _par_repeat                0041d20a f   parse.o
 0001:0001c2d5       _par_subsh                 0041d2d5 f   parse.o
 0001:0001c328       _par_funcdef               0041d328 f   parse.o
 0001:0001c3f6       _par_time                  0041d3f6 f   parse.o
 0001:0001c411       _par_dinbrack              0041d411 f   parse.o
 0001:0001c465       _par_simple                0041d465 f   parse.o
 0001:0001c682       _par_cond                  0041d682 f   parse.o
 0001:0001c6da       _par_cond_1                0041d6da f   parse.o
 0001:0001c730       _par_cond_2                0041d730 f   parse.o
 0001:0001c9e3       _par_redir                 0041d9e3 f   parse.o
 0001:0001cb54       _par_wordlist              0041db54 f   parse.o
 0001:0001cb82       _par_nl_wordlist           0041db82 f   parse.o
 0001:0001cbbb       _par_cond_double           0041dbbb f   parse.o
 0001:0001cc0e       _get_cond_num              0041dc0e f   parse.o
 0001:0001cc47       _par_cond_triple           0041dc47 f   parse.o
 0001:0001cd00       _yyerror                   0041dd00 f   parse.o
 0001:0001cd4a       _install_handler           0041dd4a f   signals.o
 0001:0001cd71       _intr                      0041dd71 f   signals.o
 0001:0001cd83       _holdintr                  0041dd83 f   signals.o
 0001:0001cd9c       _noholdintr                0041dd9c f   signals.o
 0001:0001cdb5       _signal_mask               0041ddb5 f   signals.o
 0001:0001cdd6       _signal_block              0041ddd6 f   signals.o
 0001:0001cdf1       _signal_unblock            0041ddf1 f   signals.o
 0001:0001ce0c       _signal_setmask            0041de0c f   signals.o
 0001:0001ce27       _signal_suspend            0041de27 f   signals.o
 0001:0001ce69       _handler                   0041de69 f   signals.o
 0001:0001d106       _killrunjobs               0041e106 f   signals.o
 0001:0001d16d       _killjb                    0041e16d f   signals.o
 0001:0001d23d       _settrap                   0041e23d f   signals.o
 0001:0001d2f0       _unsettrap                 0041e2f0 f   signals.o
 0001:0001d3df       _dotrapargs                0041e3df f   signals.o
 0001:0001d572       _dotrap                    0041e572 f   signals.o
 0001:0001d58f       _prefork                   0041e58f f   subst.o
 0001:0001d6c6       _stringsubst               0041e6c6 f   subst.o
 0001:0001d9f9       _globlist                  0041e9f9 f   subst.o
 0001:0001da47       _singsub                   0041ea47 f   subst.o
 0001:0001da7f       _multsub                   0041ea7f f   subst.o
 0001:0001db4c       _filesub                   0041eb4c f   subst.o
 0001:0001dc44       _filesubstr                0041ec44 f   subst.o
 0001:0001deb4       _strcatsub                 0041eeb4 f   subst.o
 0001:0001df27       _strpcmp                   0041ef27 f   subst.o
 0001:0001df3c       _invstrpcmp                0041ef3c f   subst.o
 0001:0001df53       _cstrpcmp                  0041ef53 f   subst.o
 0001:0001dfe8       _invcstrpcmp               0041efe8 f   subst.o
 0001:0001e07f       _dopadding                 0041f07f f   subst.o
 0001:0001e424       _get_strarg                0041f424 f   subst.o
 0001:0001e494       _get_intarg                0041f494 f   subst.o
 0001:0001e50a       _paramsubst                0041f50a f   subst.o
 0001:0001fc9c       _arithsubst                00420c9c f   subst.o
 0001:0001fd33       _modify                    00420d33 f   subst.o
 0001:0002021a       _dstackent                 0042121a f   subst.o
 0001:000202aa       _taddchr                   004212aa f   text.o
 0001:00020311       _taddstr                   00421311 f   text.o
 0001:0002038d       _taddnl                    0042138d f   text.o
 0001:000203c8       _getpermtext               004213c8 f   text.o
 0001:00020424       _getjobtext                00421424 f   text.o
 0001:0002046f       _gettext2                  0042146f f   text.o
 0001:0002099c       _getcond                   0042199c f   text.o
 0001:00020ac3       _getsimptext               00421ac3 f   text.o
 0001:00020b33       _getredirs                 00421b33 f   text.o
 0001:00020bcb       _taddlist                  00421bcb f   text.o
 0001:00020bf5       _zwarnnam                  00421bf5 f   utils.o
 0001:00020c1c       _zerr                      00421c1c f   utils.o
 0001:00020c8e       _zerrnam                   00421c8e f   utils.o
 0001:00020ec6       _putraw                    00421ec6 f   utils.o
 0001:00020eda       _putshout                  00421eda f   utils.o
 0001:00020eee       _nicechar                  00421eee f   utils.o
 0001:00020fbd       _nicestrlen                00421fbd f   utils.o
 0001:00020fe6       _findpwd                   00421fe6 f   utils.o
 0001:0002102d       _slashsplit                0042202d f   utils.o
 0001:000210c2       _xsymlink                  004220c2 f   utils.o
 0001:00021217       _fprintdir                 00422217 f   utils.o
 0001:00021270       _get_username              00422270 f   utils.o
 0001:000212b8       _finddir                   004222b8 f   utils.o
 0001:00021380       _adduserdir                00422380 f   utils.o
 0001:0002144f       _getnameddir               0042244f f   utils.o
 0001:000214f9       _dirchar                   004224f9 f   utils.o
 0001:00021522       _dircmp                    00422522 f   utils.o
 0001:00021572       _preprompt                 00422572 f   utils.o
 0001:00021724       _checkmailpath             00422724 f   utils.o
 0001:00021a03       _freecompcond              00422a03 f   utils.o
 0001:00021b0d       _freestr                   00422b0d f   utils.o
 0001:00021b18       _adjustwinsize             00422b18 f   utils.o
 0001:00021bfc       _movefd                    00422bfc f   utils.o
 0001:00021c6b       _redup                     00422c6b f   utils.o
 0001:00021cdf       _zclose                    00422cdf f   utils.o
 0001:00021d33       _gettempname               00422d33 f   utils.o
 0001:00021d64       _has_token                 00422d64 f   utils.o
 0001:00021d86       _chuck                     00422d86 f   utils.o
 0001:00021da5       _tulower                   00422da5 f   utils.o
 0001:00021de6       _tuupper                   00422de6 f   utils.o
 0001:00021e27       _ztrncpy                   00422e27 f   utils.o
 0001:00021e52       _strucpy                   00422e52 f   utils.o
 0001:00021e6c       _struncpy                  00422e6c f   utils.o
 0001:00021e97       _arrlen                    00422e97 f   utils.o
 0001:00021ea9       _skipparens                00422ea9 f   utils.o
 0001:00021ee3       _zstrtol                   00422ee3 f   utils.o
 0001:00021fc8       _checkrmall                00422fc8 f   utils.o
 0001:00022069       _getquery                  00423069 f   utils.o
 0001:000221b1       _spscan                    004231b1 f   utils.o
 0001:000221f3       _spckword                  004231f3 f   utils.o
 0001:00022707       _ztrftime                  00423707 f   utils.o
 0001:00022899       _zjoin                     00423899 f   utils.o
 0001:0002290f       _skipwsep                  0042390f f   utils.o
 0001:0002294e       _spacesplit                0042394e f   utils.o
 0001:00022aa3       _findsep                   00423aa3 f   utils.o
 0001:00022b5d       _findword                  00423b5d f   utils.o
 0001:00022bdf       _wordcount                 00423bdf f   utils.o
 0001:00022cee       _sepjoin                   00423cee f   utils.o
 0001:00022da9       _sepsplit                  00423da9 f   utils.o
 0001:00022e58       _getshfunc                 00423e58 f   utils.o
 0001:00022ec3       _allocnode                 00423ec3 f   utils.o
 0001:00022f0f       _dupstruct                 00423f0f f   utils.o
 0001:00022f83       _simplifystruct            00423f83 f   utils.o
 0001:000230f7       _expandstruct              004240f7 f   utils.o
 0001:00023364       _dupnode                   00424364 f   utils.o
 0001:0002345f       _freetreenode              0042445f f   utils.o
 0001:000234d2       _dupstruct2                004244d2 f   utils.o
 0001:00023685       _freestruct                00424685 f   utils.o
 0001:00023799       _duplist                   00424799 f   utils.o
 0001:000237c9       _duparray                  004247c9 f   utils.o
 0001:00023809       _list2arr                  00424809 f   utils.o
 0001:00023848       _arr2list                  00424848 f   utils.o
 0001:00023877       _mkarray                   00424877 f   utils.o
 0001:0002389b       _feep                      0042489b f   utils.o
 0001:000238ad       _freearray                 004248ad f   utils.o
 0001:000238d1       _equalsplit                004248d1 f   utils.o
 0001:000238f9       _simplifyright             004248f9 f   utils.o
 0001:00023956       _inittyptab                00424956 f   utils.o
 0001:00023b18       _arrdup                    00424b18 f   utils.o
 0001:00023b62       _spname                    00424b62 f   utils.o
 0001:00023c16       _mindist                   00424c16 f   utils.o
 0001:00023cec       _spdist                    00424cec f   utils.o
 0001:00023eb7       _metafy                    00424eb7 f   utils.o
 0001:00023fcf       _unmetafy                  00424fcf f   utils.o
 0001:0002401a       _metalen                   0042501a f   utils.o
 0001:0002403f       _unmeta                    0042503f f   utils.o
 0001:00024092       _ztrcmp                    00425092 f   utils.o
 0001:000240f8       _metadiffer                004250f8 f   utils.o
 0001:000241bd       _ztrlen                    004251bd f   utils.o
 0001:000241d4       _ztrsub                    004251d4 f   utils.o
 0001:000241f1       _zreaddir                  004251f1 f   utils.o
 0001:00024213       _zputs                     00425213 f   utils.o
 0001:00024249       _nicezputs                 00425249 f   utils.o
 0001:000242a6       _niceztrlen                004252a6 f   utils.o
 0001:00024300       _hasspecial                00425300 f   utils.o
 0001:00024332       _quotedzputs               00425332 f   utils.o
 0001:0002448c       _optlookup                 0042548c f   utils.o
 0001:00024526       _optlookupc                00425526 f   utils.o
 0001:00024574       _dosetopt                  00425574 f   utils.o
 0001:000245f1       _dupstrpfx                 004255f1 f   utils.o
 0001:0002461a       _ztrduppfx                 0042561a f   utils.o
 0001:00024642       _remember_edits            00425642 f   zle_hist.o
 0001:000246cf       _forget_edits              004256cf f   zle_hist.o
 0001:00024705       _uphistory                 00425705 f   zle_hist.o
 0001:0002475b       _uplineorhistory           0042575b f   zle_hist.o
 0001:00024837       _viuplineorhistory         00425837 f   zle_hist.o
 0001:000248cb       _uplineorsearch            004258cb f   zle_hist.o
 0001:0002499e       _downlineorhistory         0042599e f   zle_hist.o
 0001:00024a71       _vidownlineorhistory       00425a71 f   zle_hist.o
 0001:00024af3       _downlineorsearch          00425af3 f   zle_hist.o
 0001:00024bbd       _acceptlineanddownhistory  00425bbd f   zle_hist.o
 0001:00024bff       _downhistory               00425bff f   zle_hist.o
 0001:00024c55       _historysearchbackward     00425c55 f   zle_hist.o
 0001:00024d02       _historysearchforward      00425d02 f   zle_hist.o
 0001:00024dc0       _beginningofbufferorhistory 00425dc0 f   zle_hist.o
 0001:00024dd6       _beginningofhistory        00425dd6 f   zle_hist.o
 0001:00024e10       _endofbufferorhistory      00425e10 f   zle_hist.o
 0001:00024e2b       _endofhistory              00425e2b f   zle_hist.o
 0001:00024e62       _insertlastword            00425e62 f   zle_hist.o
 0001:00024fb5       _qgetevent                 00425fb5 f   zle_hist.o
 0001:00024fcf       _zle_get_event             00425fcf f   zle_hist.o
 0001:00024ffa       _pushline                  00425ffa f   zle_hist.o
 0001:0002506b       _pushlineoredit            0042606b f   zle_hist.o
 0001:0002510b       _pushinput                 0042610b f   zle_hist.o
 0001:00025129       _getline                   00426129 f   zle_hist.o
 0001:00025185       _historyincrementalsearchbackward 00426185 f   zle_hist.o
 0001:0002518e       _historyincrementalsearchforward 0042618e f   zle_hist.o
 0001:00025197       _doisearch                 00426197 f   zle_hist.o
 0001:000259f1       _acceptandinfernexthistory 004269f1 f   zle_hist.o
 0001:00025a55       _infernexthistory          00426a55 f   zle_hist.o
 0001:00025ab0       _vifetchhistory            00426ab0 f   zle_hist.o
 0001:00025b25       _getvisrchstr              00426b25 f   zle_hist.o
 0001:00025d52       _vihistorysearchforward    00426d52 f   zle_hist.o
 0001:00025d6b       _vihistorysearchbackward   00426d6b f   zle_hist.o
 0001:00025d81       _virepeatsearch            00426d81 f   zle_hist.o
 0001:00025e30       _virevrepeatsearch         00426e30 f   zle_hist.o
 0001:00025e4e       _historybeginningsearchbackward 00426e4e f   zle_hist.o
 0001:00025ecc       _historybeginningsearchforward 00426ecc f   zle_hist.o
 0001:00025f5b       _ungetkey                  00426f5b f   zle_main.o
 0001:00025f9c       _ungetkeys                 00426f9c f   zle_main.o
 0001:00025fc4       _getkey                    00426fc4 f   zle_main.o
 0001:00026196       _zleread                   00427196 f   zle_main.o
 0001:00026605       _getkeycmd                 00427605 f   zle_main.o
 0001:00026869       _ungetkeycmd               00427869 f   zle_main.o
 0001:0002688b       _sendstring                0042788b f   zle_main.o
 0001:000268c1       _makefunckey               004278c1 f   zle_main.o
 0001:000268d1       _initkeybindings           004278d1 f   zle_main.o
 0001:00026ecf       _getkeystring              00427ecf f   zle_main.o
 0001:00027151       _printbind                 00428151 f   zle_main.o
 0001:00027235       _printbinding              00428235 f   zle_main.o
 0001:000272b1       _bin_bindkey               004282b1 f   zle_main.o
 0001:000278cc       _freekeynode               004288cc f   zle_main.o
 0001:000278f8       _describekeybriefly        004288f8 f   zle_main.o
 0001:00027a38       _whereis                   00428a38 f   zle_main.o
 0001:00027c4f       _trashzle                  00428c4f f   zle_main.o
 0001:00027cf2       _selfinsert                00428cf2 f   zle_misc.o
 0001:00027ea1       _selfinsertunmeta          00428ea1 f   zle_misc.o
 0001:00027ec0       _deletechar                00428ec0 f   zle_misc.o
 0001:00027ef8       _backwarddeletechar        00428ef8 f   zle_misc.o
 0001:00027f26       _killwholeline             00428f26 f   zle_misc.o
 0001:00027fae       _killbuffer                00428fae f   zle_misc.o
 0001:00027fc5       _backwardkillline          00428fc5 f   zle_misc.o
 0001:0002803a       _gosmacstransposechars     0042903a f   zle_misc.o
 0001:000280c0       _transposechars            004290c0 f   zle_misc.o
 0001:00028197       _poundinsert               00429197 f   zle_misc.o
 0001:0002822f       _acceptline                0042922f f   zle_misc.o
 0001:0002823a       _acceptandhold             0042923a f   zle_misc.o
 0001:00028272       _killline                  00429272 f   zle_misc.o
 0001:000282e9       _killregion                004292e9 f   zle_misc.o
 0001:00028322       _copyregionaskill          00429322 f   zle_misc.o
 0001:00028359       _yank                      00429359 f   zle_misc.o
 0001:000283ea       _yankpop                   004293ea f   zle_misc.o
 0001:00028488       _overwritemode             00429488 f   zle_misc.o
 0001:00028490       _undefinedkey              00429490 f   zle_misc.o
 0001:00028495       _quotedinsert              00429495 f   zle_misc.o
 0001:000284ba       _digitargument             004294ba f   zle_misc.o
 0001:000284f8       _negargument               004294f8 f   zle_misc.o
 0001:00028518       _universalargument         00429518 f   zle_misc.o
 0001:00028545       _copyprevword              00429545 f   zle_misc.o
 0001:000285b2       _sendbreak                 004295b2 f   zle_misc.o
 0001:000285bd       _undo                      004295bd f   zle_misc.o
 0001:00028680       _quoteregion               00429680 f   zle_misc.o
 0001:00028725       _quoteline                 00429725 f   zle_misc.o
 0001:0002876d       _makequote                 0042976d f   zle_misc.o
 0001:000287c7       _executenamedcommand       004297c7 f   zle_misc.o
 0001:00028ba7       _stradd                    00429ba7 f   zle_misc.o
 0001:00028c87       _putstr                    00429c87 f   zle_misc.o
 0001:00028cb2       _tsetcap                   00429cb2 f   zle_misc.o
 0001:00028da1       _putprompt                 00429da1 f   zle_misc.o
 0001:00028f08       _putpromptchar             00429f08 f   zle_misc.o
 0001:00029b62       _pputc                     0042ab62 f   zle_misc.o
 0001:00029c04       _addbufspc                 0042ac04 f   zle_misc.o
 0001:00029c6a       _beginningofline           0042ac6a f   zle_move.o
 0001:00029cd1       _endofline                 0042acd1 f   zle_move.o
 0001:00029d48       _beginningoflinehist       0042ad48 f   zle_move.o
 0001:00029dac       _endoflinehist             0042adac f   zle_move.o
 0001:00029e1b       _forwardchar               0042ae1b f   zle_move.o
 0001:00029e48       _backwardchar              0042ae48 f   zle_move.o
 0001:00029e75       _setmarkcommand            0042ae75 f   zle_move.o
 0001:00029e80       _exchangepointandmark      0042ae80 f   zle_move.o
 0001:00029ea7       _vigotocolumn              0042aea7 f   zle_move.o
 0001:00029efb       _vimatchbracket            0042aefb f   zle_move.o
 0001:0002a01a       _viforwardchar             0042b01a f   zle_move.o
 0001:0002a072       _vibackwardchar            0042b072 f   zle_move.o
 0001:0002a0c8       _viendofline               0042b0c8 f   zle_move.o
 0001:0002a113       _vibeginningofline         0042b113 f   zle_move.o
 0001:0002a11e       _vifindnextchar            0042b11e f   zle_move.o
 0001:0002a144       _vifindprevchar            0042b144 f   zle_move.o
 0001:0002a167       _vifindnextcharskip        0042b167 f   zle_move.o
 0001:0002a18d       _vifindprevcharskip        0042b18d f   zle_move.o
 0001:0002a1b3       _virepeatfind              0042b1b3 f   zle_move.o
 0001:0002a272       _virevrepeatfind           0042b272 f   zle_move.o
 0001:0002a2a5       _vifirstnonblank           0042b2a5 f   zle_move.o
 0001:0002a2d6       _visetmark                 0042b2d6 f   zle_move.o
 0001:0002a30c       _vigotomark                0042b30c f   zle_move.o
 0001:0002a391       _vigotomarkline            0042b391 f   zle_move.o
 0001:0002a39b       _resetvideo                0042b39b f   zle_refresh.o
 0001:0002a579       _scrollwindow              0042b579 f   zle_refresh.o
 0001:0002a5c7       _refresh                   0042b5c7 f   zle_refresh.o
 0001:0002b475       _refreshline               0042c475 f   zle_refresh.o
 0001:0002ba6b       _moveto                    0042ca6b f   zle_refresh.o
 0001:0002bc2e       _tcmultout                 0042cc2e f   zle_refresh.o
 0001:0002bc8a       _tc_rightcurs              0042cc8a f   zle_refresh.o
 0001:0002bdfd       _tc_downcurs               0042cdfd f   zle_refresh.o
 0001:0002be43       _tcout                     0042ce43 f   zle_refresh.o
 0001:0002be5e       _tcoutarg                  0042ce5e f   zle_refresh.o
 0001:0002be87       _clearscreen               0042ce87 f   zle_refresh.o
 0001:0002bea1       _redisplay                 0042cea1 f   zle_refresh.o
 0001:0002bedc       _singlerefresh             0042cedc f   zle_refresh.o
 0001:0002c189       _singmoveto                0042d189 f   zle_refresh.o
 0001:0002c224       _genprompts                0042d224 f   zle_refresh.o
 0001:0002c296       _backdelreal               0042d296 f   zle_tricky.o
 0001:0002c2ca       _foredelreal               0042d2ca f   zle_tricky.o
 0001:0002c2fa       _usetab                    0042d2fa f   zle_tricky.o
 0001:0002c328       _completeword              0042d328 f   zle_tricky.o
 0001:0002c360       _menucomplete              0042d360 f   zle_tricky.o
 0001:0002c396       _listchoices               0042d396 f   zle_tricky.o
 0001:0002c3b7       _spellword                 0042d3b7 f   zle_tricky.o
 0001:0002c3ce       _deletecharorlist          0042d3ce f   zle_tricky.o
 0001:0002c411       _expandword                0042d411 f   zle_tricky.o
 0001:0002c43f       _expandorcomplete          0042d43f f   zle_tricky.o
 0001:0002c477       _menuexpandorcomplete      0042d477 f   zle_tricky.o
 0001:0002c4ad       _listexpand                0042d4ad f   zle_tricky.o
 0001:0002c4ce       _reversemenucomplete       0042d4ce f   zle_tricky.o
 0001:0002c539       _acceptandmenucomplete     0042d539 f   zle_tricky.o
 0001:0002c5fc       _checkparams               0042d5fc f   zle_tricky.o
 0001:0002c6a5       _cmphaswilds               0042d6a5 f   zle_tricky.o
 0001:0002c842       _docomplete                0042d842 f   zle_tricky.o
 0001:0002cecf       _do_menucmp                0042decf f   zle_tricky.o
 0001:0002cf34       _addx                      0042df34 f   zle_tricky.o
 0001:0002cffb       _dupstrspace               0042dffb f   zle_tricky.o
 0001:0002d035       _metafy_line               0042e035 f   zle_tricky.o
 0001:0002d09c       _unmetafy_line             0042e09c f   zle_tricky.o
 0001:0002d0c9       _get_comp_string           0042e0c9 f   zle_tricky.o
 0001:0002d907       _doexpansion               0042e907 f   zle_tricky.o
 0001:0002dac8       _gotword                   0042eac8 f   zle_tricky.o
 0001:0002daf8       _inststrlen                0042eaf8 f   zle_tricky.o
 0001:0002db56       _quotename                 0042eb56 f   zle_tricky.o
 0001:0002dca2       _addmatch                  0042eca2 f   zle_tricky.o
 0001:0002e348       _maketildelist             0042f348 f   zle_tricky.o
 0001:0002e379       _rembslash                 0042f379 f   zle_tricky.o
 0001:0002e3a7       _getcpat                   0042f3a7 f   zle_tricky.o
 0001:0002e4c7       _get_ccompctl              0042f4c7 f   zle_tricky.o
 0001:0002ec20       _dumphashtable             0042fc20 f   zle_tricky.o
 0001:0002ec58       _addhnmatch                0042fc58 f   zle_tricky.o
 0001:0002ec69       _getreal                   0042fc69 f   zle_tricky.o
 0001:0002ecce       _gen_matches_files         0042fcce f   zle_tricky.o
 0001:0002effc       _quotepresuf               0042fffc f   zle_tricky.o
 0001:0002f031       _docompletion              00430031 f   zle_tricky.o
 0001:0002f1d9       _makecomplist              004301d9 f   zle_tricky.o
 0001:00030a2d       _invalidatelist            00431a2d f   zle_tricky.o
 0001:00030b09       _get_user_var              00431b09 f   zle_tricky.o
 0001:00030c14       _strbpcmp                  00431c14 f   zle_tricky.o
 0001:00030c57       _makearray                 00431c57 f   zle_tricky.o
 0001:00030d08       _do_ambiguous              00431d08 f   zle_tricky.o
 0001:00030e85       _ztat                      00431e85 f   zle_tricky.o
 0001:00030eda       _do_single                 00431eda f   zle_tricky.o
 0001:000314d8       _do_ambig_menu             004324d8 f   zle_tricky.o
 0001:00031501       _strpfx                    00432501 f   zle_tricky.o
 0001:00031524       _stripfx                   00432524 f   zle_tricky.o
 0001:00031565       _strsfx                    00432565 f   zle_tricky.o
 0001:0003159d       _strisfx                   0043259d f   zle_tricky.o
 0001:000315d6       _pfxlen                    004325d6 f   zle_tricky.o
 0001:000315f7       _pfxilen                   004325f7 f   zle_tricky.o
 0001:00031640       _sfxlen                    00432640 f   zle_tricky.o
 0001:0003169b       _sfxilen                   0043269b f   zle_tricky.o
 0001:00031714       _printfmt                  00432714 f   zle_tricky.o
 0001:000317de       _listmatches               004327de f   zle_tricky.o
 0001:00032000       _listlist                  00433000 f   zle_tricky.o
 0001:000320c8       _selectlist                004330c8 f   zle_tricky.o
 0001:0003223b       _doexpandhist              0043323b f   zle_tricky.o
 0001:000323c7       _magicspace                004333c7 f   zle_tricky.o
 0001:000323db       _expandhistory             004333db f   zle_tricky.o
 0001:000323ea       _getcurcmd                 004333ea f   zle_tricky.o
 0001:000324d8       _processcmd                004334d8 f   zle_tricky.o
 0001:0003256c       _expandcmdpath             0043356c f   zle_tricky.o
 0001:00032662       _expandorcompleteprefix    00433662 f   zle_tricky.o
 0001:000326bf       _sizeline                  004336bf f   zle_utils.o
 0001:000326eb       _spaceinline               004336eb f   zle_utils.o
 0001:00032745       _shiftchars                00433745 f   zle_utils.o
 0001:0003279a       _backkill                  0043379a f   zle_utils.o
 0001:000327c4       _forekill                  004337c4 f   zle_utils.o
 0001:000327e8       _cut                       004337e8 f   zle_utils.o
 0001:00032ab0       _backdel                   00433ab0 f   zle_utils.o
 0001:00032ac9       _foredel                   00433ac9 f   zle_utils.o
 0001:00032adb       _setline                   00433adb f   zle_utils.o
 0001:00032b2e       _findbol                   00433b2e f   zle_utils.o
 0001:00032b48       _findeol                   00433b48 f   zle_utils.o
 0001:00032b67       _findline                  00433b67 f   zle_utils.o
 0001:00032b7e       _initundo                  00433b7e f   zle_utils.o
 0001:00032bd7       _addundo                   00433bd7 f   zle_utils.o
 0001:00032d25       _hstrnstr                  00433d25 f   zle_utils.o
 0001:00032d9f       _getzlequery               00433d9f f   zle_utils.o
 0001:00032de3       _vigetkey                  00433de3 f   zle_vi.o
 0001:00032eaa       _getvirange                00433eaa f   zle_vi.o
 0001:000330bd       _viaddnext                 004340bd f   zle_vi.o
 0001:000331c1       _viaddeol                  004341c1 f   zle_vi.o
 0001:000331d4       _viinsert                  004341d4 f   zle_vi.o
 0001:000331dd       _viinsertbol               004341dd f   zle_vi.o
 0001:000331eb       _videlete                  004341eb f   zle_vi.o
 0001:0003324b       _videletechar              0043424b f   zle_vi.o
 0001:000332b7       _vichange                  004342b7 f   zle_vi.o
 0001:000332ff       _visubstitute              004342ff f   zle_vi.o
 0001:0003336c       _vichangeeol               0043436c f   zle_vi.o
 0001:0003338a       _vichangewholeline         0043438a f   zle_vi.o
 0001:00033394       _viyank                    00434394 f   zle_vi.o
 0001:000333da       _viyankeol                 004343da f   zle_vi.o
 0001:0003340a       _viyankwholeline           0043440a f   zle_vi.o
 0001:0003348a       _vireplace                 0043448a f   zle_vi.o
 0001:00033493       _vireplacechars            00434493 f   zle_vi.o
 0001:00033543       _vicmdmode                 00434543 f   zle_vi.o
 0001:0003357f       _viopenlinebelow           0043457f f   zle_vi.o
 0001:000335af       _viopenlineabove           004345af f   zle_vi.o
 0001:000335d9       _vioperswapcase            004345d9 f   zle_vi.o
 0001:000336eb       _virepeatchange            004346eb f   zle_vi.o
 0001:0003374f       _viindent                  0043474f f   zle_vi.o
 0001:000337dd       _viunindent                004347dd f   zle_vi.o
 0001:00033868       _vibackwarddeletechar      00434868 f   zle_vi.o
 0001:000338f7       _vikillline                004348f7 f   zle_vi.o
 0001:00033915       _viputbefore               00434915 f   zle_vi.o
 0001:000339f8       _viputafter                004349f8 f   zle_vi.o
 0001:00033af0       _vijoin                    00434af0 f   zle_vi.o
 0001:00033b7c       _viswapcase                00434b7c f   zle_vi.o
 0001:00033c8e       _vicapslockpanic           00434c8e f   zle_vi.o
 0001:00033cef       _visetbuffer               00434cef f   zle_vi.o
 0001:00033d76       _vikilleol                 00434d76 f   zle_vi.o
 0001:00033dac       _vipoundinsert             00434dac f   zle_vi.o
 0001:00033e36       _viquotedinsert            00434e36 f   zle_vi.o
 0001:00033e7a       _forwardword               00434e7a f   zle_word.o
 0001:00033f04       _viforwardword             00434f04 f   zle_word.o
 0001:00033fbd       _viforwardblankword        00434fbd f   zle_word.o
 0001:00034047       _emacsforwardword          00435047 f   zle_word.o
 0001:000340d1       _viforwardblankwordend     004350d1 f   zle_word.o
 0001:0003415d       _viforwardwordend          0043515d f   zle_word.o
 0001:00034233       _backwardword              00435233 f   zle_word.o
 0001:000342a8       _vibackwardword            004352a8 f   zle_word.o
 0001:00034349       _vibackwardblankword       00435349 f   zle_word.o
 0001:000343be       _emacsbackwardword         004353be f   zle_word.o
 0001:00034433       _backwarddeleteword        00435433 f   zle_word.o
 0001:000344ae       _vibackwardkillword        004354ae f   zle_word.o
 0001:00034562       _backwardkillword          00435562 f   zle_word.o
 0001:000345e0       _upcaseword                004355e0 f   zle_word.o
 0001:00034691       _downcaseword              00435691 f   zle_word.o
 0001:00034742       _capitalizeword            00435742 f   zle_word.o
 0001:00034885       _deleteword                00435885 f   zle_word.o
 0001:00034908       _killword                  00435908 f   zle_word.o
 0001:0003498e       _transposewords            0043598e f   zle_word.o
 0001:00034b69       _nt_init                   00435b69 f   support.o
 0001:00034d71       _gethostname               00435d71 f   support.o
 0001:00034d81       _set_default_path          00435d81 f   support.o
 0001:00034e96       _gettimeofday              00435e96 f   support.o
 0001:00034ec0       _getlogin                  00435ec0 f   support.o
 0001:00034efa       _make_err_str              00435efa f   support.o
 0001:00034f1b       _forward_slash_get_cwd     00435f1b f   support.o
 0001:00034f44       _nt_execve_wrapped         00435f44 f   support.o
 0001:000352de       _nt_execve                 004362de f   support.o
 0001:0003534c       _nt_chdir                  0043634c f   support.o
 0001:00035377       _caseify_pwd               00436377 f   support.o
 0001:00035402       _is_pathext                00436402 f   support.o
 0001:0003547f       _silly_entry               0043647f f   support.o
 0001:00035543       _fix_path_for_child        00436543 f   support.o
 0001:000355a2       _copy_quote_and_fix_slashes 004365a2 f   support.o
 0001:0003562b       _concat_args_and_quote     0043662b f   support.o
 0001:000357c0       _fmt_pwd_for_prompt        004367c0 f   support.o
 0001:00035854       _bin_true                  00436854 f   bogus.o
 0001:00035854       _getgrnam                  00436854 f   bogus.o
 0001:00035854       _getgid                    00436854 f   bogus.o
 0001:00035854       _gettygrp                  00436854 f   bogus.o
 0001:00035854       __matherr                  00436854 f   bogus.o
 0001:00035854       _setblock_stdin            00436854 f   bogus.o
 0001:00035854       _bin_log                   00436854 f   bogus.o
 0001:00035854       _geteuid                   00436854 f   bogus.o
 0001:00035854       _getuid                    00436854 f   bogus.o
 0001:00035854       _ispwd                     00436854 f   bogus.o
 0001:00035854       _nt_clearerr               00436854 f   bogus.o
 0001:00035854       _nt_fflush                 00436854 f   bogus.o
 0001:00035854       _getegid                   00436854 f   bogus.o
 0001:00035854       _qualisblk                 00436854 f   bogus.o
 0001:00035854       _bin_times                 00436854 f   bogus.o
 0001:00035857       _getpwnam                  00436857 f   bogus.o
 0001:000358e3       _getpwuid                  004368e3 f   bogus.o
 0001:0003595d       _times                     0043695d f   bogus.o
 0001:00035961       _opendir                   00436961 f   dirent.o
 0001:00035bfd       _closedir                  00436bfd f   dirent.o
 0001:00035c48       _readdir                   00436c48 f   dirent.o
 0001:00035d6a       _open_enum                 00436d6a f   dirent.o
 0001:00035e62       _close_enum                00436e62 f   dirent.o
 0001:00035e95       _enum_next_share           00436e95 f   dirent.o
 0001:00035eff       _force_read                00436eff f   io.o
 0001:00035f8f       _nt_read                   00436f8f f   io.o
 0001:0003612f       _nt_write                  0043712f f   io.o
 0001:000361ae       _consoleread               004371ae f   io.o
 0001:00036425       _nt_open                   00437425 f   io.o
 0001:0003654d       _get_teb                   0043754d f   fork.o
 0001:0003657a       _fork_init                 0043757a f   fork.o
 0001:000365c2       _fork                      004375c2 f   fork.o
 0001:00036870       _stack_probe               00437870 f   fork.o
 0001:0003688f       _heap_init                 0043788f f   fork.o
 0001:0003692c       _sbrk                      0043792c f   fork.o
 0001:0003697a       _fmalloc                   0043797a f   fork.o
 0001:00036a8a       _ffree                     00437a8a f   fork.o
 0001:00036add       _frealloc                  00437add f   fork.o
 0001:00036bfd       _showall                   00437bfd f   fork.o
 0001:00036c5e       _fork_copy_user_mem        00437c5e f   globals.o
 0001:00036c91       _is_gui                    00437c91 f   globals.o
 0001:00036d78       _is_9x_gui                 00437d78 f   globals.o
 0001:00036e0d       _nt_init_signals           00437e0d f   signal.o
 0001:00036e9f       _suspend_main_thread       00437e9f f   signal.o
 0001:00036eac       _resume_main_thread        00437eac f   signal.o
 0001:00036eb9       _sigaddset                 00437eb9 f   signal.o
 0001:00036ee7       _sigdelset                 00437ee7 f   signal.o
 0001:00036f17       _deliver_pending           00437f17 f   signal.o
 0001:00036f58       _sigprocmask               00437f58 f   signal.o
 0001:00036fab       _sigsuspend                00437fab f   signal.o
 0001:0003702f       _sigaction                 0043802f f   signal.o
 0001:00037079       _inc_pending               00438079 f   signal.o
 0001:0003708c       _ctrl_handler              0043808c f   signal.o
 0001:00037099       _generic_handler           00438099 f   signal.o
 0001:00037270       __nt_signal                00438270 f   signal.o
 0001:000372a2       _waitpid                   004382a2 f   signal.o
 0001:00037310       _alarm_callback@4          00438310 f   signal.o
 0001:00037344       _alarm                     00438344 f   signal.o
 0001:000373c1       _add_to_child_list         004383c1 f   signal.o
 0001:0003743e       _sig_child_callback        0043843e f   signal.o
 0001:000374b8       _sigchild_thread           004384b8 f   signal.o
 0001:000374fb       _start_sigchild_thread     004384fb f   signal.o
 0001:00037530       _kill                      00438530 f   signal.o
 0001:000375b9       _nice                      004385b9 f   signal.o
 0001:000376bf       _tgetnum                   004386bf f   termcap.o
 0001:00037718       _tgetflag                  00438718 f   termcap.o
 0001:0003773a       _tgetstr                   0043873a f   termcap.o
 0001:0003786c       _tputs                     0043886c f   termcap.o
 0001:00037920       _tgetent                   00438920 f   termcap.o
 0001:0003794a       _tgoto                     0043894a f   tparam.o
 0001:00037cdf       _redo_console              00438cdf f   console.o
 0001:00037d25       _nt_term_init              00438d25 f   console.o
 0001:00037db3       _nt_ClearEOL               00438db3 f   console.o
 0001:00037e57       _nt_move_next_tab          00438e57 f   console.o
 0001:00037e8f       _NT_MoveToLineOrChar       00438e8f f   console.o
 0001:00037f5a       _ScrollBuf                 00438f5a f   console.o
 0001:00037fdd       _nt_getsize                00438fdd f   console.o
 0001:0003801b       _NT_ClearEOD               0043901b f   console.o
 0001:00038083       _NT_ClearScreen            00439083 f   console.o
 0001:000380f5       _NT_ClearScreen_WholeBuffer 004390f5 f   console.o
 0001:00038161       _nt_term_standout_on       00439161 f   console.o
 0001:0003818a       _nt_term_standout_off      0043918a f   console.o
 0001:000381a9       _tc_putc                   004391a9 f   tparse.o
 0001:00038326       _move_cursor               00439326 f   tparse.o
 0001:0003835d       _init_stdio                0043935d f   stdio.o
 0001:000383c0       _f_isset                   004393c0 f   stdio.o
 0001:000383d0       _f_hisset                  004393d0 f   stdio.o
 0001:000383f9       _restore_fds               004393f9 f   stdio.o
 0001:00038458       _close_copied_fds          00439458 f   stdio.o
 0001:0003847c       _copy_fds                  0043947c f   stdio.o
 0001:000384ce       _nt_fdopen                 004394ce f   stdio.o
 0001:000384da       _nt_fileno                 004394da f   stdio.o
 0001:00038503       ___nt_get_osfhandle        00439503 f   stdio.o
 0001:0003850f       ___nt_open_osfhandle       0043950f f   stdio.o
 0001:00038552       _nt_write2                 00439552 f   stdio.o
 0001:000385fc       _nt_fputc                  004395fc f   stdio.o
 0001:00038620       _nt_fprintf                00439620 f   stdio.o
 0001:000386d1       _nt_printf                 004396d1 f   stdio.o
 0001:00038784       _nt_puts                   00439784 f   stdio.o
 0001:000387bc       _nt_putchar                004397bc f   stdio.o
 0001:000387ce       _nt_fclose                 004397ce f   stdio.o
 0001:000387e6       _nt_close                  004397e6 f   stdio.o
 0001:0003881a       _nt_fgetc                  0043981a f   stdio.o
 0001:00038844       _nt_fputs                  00439844 f   stdio.o
 0001:00038862       _nt_putc                   00439862 f   stdio.o
 0001:00038878       _nt_access                 00439878 f   stdio.o
 0001:000389ae       _nt_open2                  004399ae f   stdio.o
 0001:00038a8c       _nt_fopen                  00439a8c f   stdio.o
 0001:00038b29       _nt_seek                   00439b29 f   stdio.o
 0001:00038b77       _nt_fseek                  00439b77 f   stdio.o
 0001:00038b8f       _nt_lseek                  00439b8f f   stdio.o
 0001:00038bac       _nt_ftell                  00439bac f   stdio.o
 0001:00038bc0       _nt_isatty                 00439bc0 f   stdio.o
 0001:00038bd9       _nt_fread                  00439bd9 f   stdio.o
 0001:00038c3e       _nt_fwrite                 00439c3e f   stdio.o
 0001:00038cec       _nt_dup                    00439cec f   stdio.o
 0001:00038d4c       _nt_dup2                   00439d4c f   stdio.o
 0001:00038dfd       _nt_fgets                  00439dfd f   stdio.o
 0001:00038e78       _nt_pipe2                  00439e78 f   stdio.o
 0001:00038ea7       _nt_pipe                   00439ea7 f   stdio.o
 0001:00038edf       _is_server                 00439edf f   stdio.o
 0001:00038f35       _nt_stat                   00439f35 f   stdio.o
 0001:00038f5b       _nt_fstat                  00439f5b f   stdio.o
 0001:00038fdb       _semicolonarrgetfn         00439fdb f   zsh_nt.o
 0001:00038fee       _semicolonarrsetfn         00439fee f   zsh_nt.o
 0001:00039039       _semicolonsplit            0043a039 f   zsh_nt.o
 0001:000390ec       _semicolon_arrfixenv       0043a0ec f   zsh_nt.o
 0001:000391a3       _bin_start                 0043a1a3 f   ntbin.o
 0001:00039572       _bin_title                 0043a572 f   ntbin.o
 0001:00039679       _bin_cls                   0043a679 f   ntbin.o
 0001:00039681       _init_shell_dll            0043a681 f   ntbin.o
 0001:000396a7       _try_shell_ex              0043a6a7 f   ntbin.o
 0001:00039840       _enum_wincb@8              0043a840 f   ps.o
 0001:000398bd       _Win95Lister               0043a8bd f   ps.o
 0001:00039994       _NTLister                  0043a994 f   ps.o
 0001:00039ac4       _NTLister_old_style        0043aac4 f   ps.o
 0001:00039e91       _init_plister              0043ae91 f   ps.o
 0001:00039f8b       _bin_ps                    0043af8b f   ps.o
 0001:0003a06b       _bin_shutdown              0043b06b f   ps.o
 0001:0003a230       _memset                    0043b230 f   msvcrt:MSVCRT.dll
 0001:0003a236       _strcmp                    0043b236 f   msvcrt:MSVCRT.dll
 0001:0003a23c       _strcpy                    0043b23c f   msvcrt:MSVCRT.dll
 0001:0003a242       _strcat                    0043b242 f   msvcrt:MSVCRT.dll
 0001:0003a248       _memcpy                    0043b248 f   msvcrt:MSVCRT.dll
 0001:0003a250       __alloca_probe             0043b250 f   msvcrt:chkstk.obj
 0001:0003a250       __chkstk                   0043b250 f   msvcrt:chkstk.obj
 0001:0003a280       __except_handler3          0043b280 f   msvcrt:MSVCRT.dll
 0001:0003a286       __ftol                     0043b286 f   msvcrt:MSVCRT.dll
 0001:0003a28c       _memcmp                    0043b28c f   msvcrt:MSVCRT.dll
 0001:0003a292       _mainCRTStartup            0043b292 f   msvcrt:crtexe.obj
 0001:0003a3a2       __setjmp3                  0043b3a2 f   msvcrt:MSVCRT.dll
 0001:0003a3a8       ___lconv_init              0043b3a8 f   msvcrt:MSVCRT.dll
 0001:0003a3ae       __XcptFilter               0043b3ae f   msvcrt:MSVCRT.dll
 0001:0003a3b4       __initterm                 0043b3b4 f   msvcrt:MSVCRT.dll
 0001:0003a3ba       __setdefaultprecision      0043b3ba f   msvcrt:fp8.obj
 0001:0003a3cc       __controlfp                0043b3cc f   msvcrt:MSVCRT.dll
 0002:00000000       __imp__OpenProcessToken@12 0043c000     advapi32:ADVAPI32.dll
 0002:00000004       __imp__LookupPrivilegeValueA@12 0043c004     advapi32:ADVAPI32.dll
 0002:00000008       __imp__AdjustTokenPrivileges@24 0043c008     advapi32:ADVAPI32.dll
 0002:0000000c       __imp__RegOpenKeyExA@20    0043c00c     advapi32:ADVAPI32.dll
 0002:00000010       __imp__RegQueryValueExA@24 0043c010     advapi32:ADVAPI32.dll
 0002:00000014       __imp__RegCloseKey@4       0043c014     advapi32:ADVAPI32.dll
 0002:00000018       __imp__GetUserNameA@8      0043c018     advapi32:ADVAPI32.dll
 0002:0000001c       \177ADVAPI32_NULL_THUNK_DATA 0043c01c     advapi32:ADVAPI32.dll
 0002:00000020       __imp__GetComputerNameA@8  0043c020     kernel32:KERNEL32.dll
 0002:00000024       __imp__GetExitCodeProcess@8 0043c024     kernel32:KERNEL32.dll
 0002:00000028       __imp__GetVersionExA@4     0043c028     kernel32:KERNEL32.dll
 0002:0000002c       __imp__HeapAlloc@12        0043c02c     kernel32:KERNEL32.dll
 0002:00000030       __imp__WideCharToMultiByte@32 0043c030     kernel32:KERNEL32.dll
 0002:00000034       __imp__lstrcatA@8          0043c034     kernel32:KERNEL32.dll
 0002:00000038       __imp__FreeLibrary@4       0043c038     kernel32:KERNEL32.dll
 0002:0000003c       __imp__lstrcpynA@12        0043c03c     kernel32:KERNEL32.dll
 0002:00000040       __imp__CreatePipe@16       0043c040     kernel32:KERNEL32.dll
 0002:00000044       __imp__SetConsoleTitleA@4  0043c044     kernel32:KERNEL32.dll
 0002:00000048       __imp__GetFileAttributesA@4 0043c048     kernel32:KERNEL32.dll
 0002:0000004c       __imp__SetConsoleTextAttribute@8 0043c04c     kernel32:KERNEL32.dll
 0002:00000050       __imp__SetStdHandle@8      0043c050     kernel32:KERNEL32.dll
 0002:00000054       __imp__FillConsoleOutputAttribute@20 0043c054     kernel32:KERNEL32.dll
 0002:00000058       __imp__FillConsoleOutputCharacterA@20 0043c058     kernel32:KERNEL32.dll
 0002:0000005c       __imp__WriteConsoleA@20    0043c05c     kernel32:KERNEL32.dll
 0002:00000060       __imp__SetConsoleCursorPosition@8 0043c060     kernel32:KERNEL32.dll
 0002:00000064       __imp__ScrollConsoleScreenBufferA@20 0043c064     kernel32:KERNEL32.dll
 0002:00000068       __imp__SetConsoleCP@4      0043c068     kernel32:KERNEL32.dll
 0002:0000006c       __imp__SetConsoleOutputCP@4 0043c06c     kernel32:KERNEL32.dll
 0002:00000070       __imp__GetConsoleCP@0      0043c070     kernel32:KERNEL32.dll
 0002:00000074       __imp__SetConsoleMode@8    0043c074     kernel32:KERNEL32.dll
 0002:00000078       __imp__GetConsoleScreenBufferInfo@8 0043c078     kernel32:KERNEL32.dll
 0002:0000007c       __imp__GetConsoleMode@8    0043c07c     kernel32:KERNEL32.dll
 0002:00000080       __imp__SetThreadPriority@8 0043c080     kernel32:KERNEL32.dll
 0002:00000084       __imp__GenerateConsoleCtrlEvent@8 0043c084     kernel32:KERNEL32.dll
 0002:00000088       __imp__SetPriorityClass@8  0043c088     kernel32:KERNEL32.dll
 0002:0000008c       __imp__TerminateProcess@8  0043c08c     kernel32:KERNEL32.dll
 0002:00000090       __imp__CreateThread@24     0043c090     kernel32:KERNEL32.dll
 0002:00000094       __imp__OpenProcess@12      0043c094     kernel32:KERNEL32.dll
 0002:00000098       __imp__LeaveCriticalSection@4 0043c098     kernel32:KERNEL32.dll
 0002:0000009c       __imp__InitializeCriticalSection@4 0043c09c     kernel32:KERNEL32.dll
 0002:000000a0       __imp__EnterCriticalSection@4 0043c0a0     kernel32:KERNEL32.dll
 0002:000000a4       __imp__GetCurrentThread@0  0043c0a4     kernel32:KERNEL32.dll
 0002:000000a8       __imp__DuplicateHandle@28  0043c0a8     kernel32:KERNEL32.dll
 0002:000000ac       __imp__GetCurrentProcess@0 0043c0ac     kernel32:KERNEL32.dll
 0002:000000b0       __imp__VirtualAlloc@16     0043c0b0     kernel32:KERNEL32.dll
 0002:000000b4       __imp__GetSystemInfo@4     0043c0b4     kernel32:KERNEL32.dll
 0002:000000b8       __imp__SearchPathA@24      0043c0b8     kernel32:KERNEL32.dll
 0002:000000bc       __imp__SetEvent@4          0043c0bc     kernel32:KERNEL32.dll
 0002:000000c0       __imp__GetStdHandle@4      0043c0c0     kernel32:KERNEL32.dll
 0002:000000c4       __imp__CreateEventA@16     0043c0c4     kernel32:KERNEL32.dll
 0002:000000c8       __imp__WriteProcessMemory@20 0043c0c8     kernel32:KERNEL32.dll
 0002:000000cc       __imp__ResumeThread@4      0043c0cc     kernel32:KERNEL32.dll
 0002:000000d0       __imp__ResetEvent@4        0043c0d0     kernel32:KERNEL32.dll
 0002:000000d4       __imp__lstrcmpA@8          0043c0d4     kernel32:KERNEL32.dll
 0002:000000d8       __imp__CreateFileA@28      0043c0d8     kernel32:KERNEL32.dll
 0002:000000dc       __imp__SuspendThread@4     0043c0dc     kernel32:KERNEL32.dll
 0002:000000e0       __imp__ReadConsoleInputA@16 0043c0e0     kernel32:KERNEL32.dll
 0002:000000e4       __imp__SetFilePointer@16   0043c0e4     kernel32:KERNEL32.dll
 0002:000000e8       __imp__WaitForMultipleObjects@16 0043c0e8     kernel32:KERNEL32.dll
 0002:000000ec       __imp__GetFileType@4       0043c0ec     kernel32:KERNEL32.dll
 0002:000000f0       __imp__ReadFile@20         0043c0f0     kernel32:KERNEL32.dll
 0002:000000f4       __imp__WriteFile@20        0043c0f4     kernel32:KERNEL32.dll
 0002:000000f8       __imp__GetProcAddress@8    0043c0f8     kernel32:KERNEL32.dll
 0002:000000fc       __imp__FindNextFileA@8     0043c0fc     kernel32:KERNEL32.dll
 0002:00000100       __imp__LoadLibraryA@4      0043c100     kernel32:KERNEL32.dll
 0002:00000104       __imp__FindFirstFileA@8    0043c104     kernel32:KERNEL32.dll
 0002:00000108       __imp__FindClose@4         0043c108     kernel32:KERNEL32.dll
 0002:0000010c       __imp__HeapReAlloc@16      0043c10c     kernel32:KERNEL32.dll
 0002:00000110       __imp__GetModuleFileNameA@12 0043c110     kernel32:KERNEL32.dll
 0002:00000114       __imp__Sleep@4             0043c114     kernel32:KERNEL32.dll
 0002:00000118       __imp__lstrlenA@4          0043c118     kernel32:KERNEL32.dll
 0002:0000011c       __imp__lstrcpyA@8          0043c11c     kernel32:KERNEL32.dll
 0002:00000120       __imp__ExitProcess@4       0043c120     kernel32:KERNEL32.dll
 0002:00000124       __imp__GetCurrentProcessId@0 0043c124     kernel32:KERNEL32.dll
 0002:00000128       __imp__SetEnvironmentVariableA@8 0043c128     kernel32:KERNEL32.dll
 0002:0000012c       __imp__lstrcmpiA@8         0043c12c     kernel32:KERNEL32.dll
 0002:00000130       __imp__WaitForSingleObject@8 0043c130     kernel32:KERNEL32.dll
 0002:00000134       __imp__HeapFree@12         0043c134     kernel32:KERNEL32.dll
 0002:00000138       __imp__GetWindowsDirectoryA@8 0043c138     kernel32:KERNEL32.dll
 0002:0000013c       __imp__GetEnvironmentVariableA@12 0043c13c     kernel32:KERNEL32.dll
 0002:00000140       __imp__GetBinaryTypeA@8    0043c140     kernel32:KERNEL32.dll
 0002:00000144       __imp__GetModuleHandleA@4  0043c144     kernel32:KERNEL32.dll
 0002:00000148       __imp__GetProcessHeap@0    0043c148     kernel32:KERNEL32.dll
 0002:0000014c       __imp__CloseHandle@4       0043c14c     kernel32:KERNEL32.dll
 0002:00000150       __imp__GetLocalTime@4      0043c150     kernel32:KERNEL32.dll
 0002:00000154       __imp__FormatMessageA@28   0043c154     kernel32:KERNEL32.dll
 0002:00000158       __imp__GetCurrentDirectoryA@8 0043c158     kernel32:KERNEL32.dll
 0002:0000015c       __imp__SetConsoleCtrlHandler@8 0043c15c     kernel32:KERNEL32.dll
 0002:00000160       __imp__CreateProcessA@40   0043c160     kernel32:KERNEL32.dll
 0002:00000164       __imp__GetLastError@0      0043c164     kernel32:KERNEL32.dll
 0002:00000168       \177KERNEL32_NULL_THUNK_DATA 0043c168     kernel32:KERNEL32.dll
 0002:0000016c       __imp___getdrive           0043c16c     msvcrt:MSVCRT.dll
 0002:00000170       __imp__strchr              0043c170     msvcrt:MSVCRT.dll
 0002:00000174       __imp__qsort               0043c174     msvcrt:MSVCRT.dll
 0002:00000178       __imp__atoi                0043c178     msvcrt:MSVCRT.dll
 0002:0000017c       __imp__memset              0043c17c     msvcrt:MSVCRT.dll
 0002:00000180       __imp___errno              0043c180     msvcrt:MSVCRT.dll
 0002:00000184       __imp__strcmp              0043c184     msvcrt:MSVCRT.dll
 0002:00000188       __imp__strcpy              0043c188     msvcrt:MSVCRT.dll
 0002:0000018c       __imp__strstr              0043c18c     msvcrt:MSVCRT.dll
 0002:00000190       __imp__strcat              0043c190     msvcrt:MSVCRT.dll
 0002:00000194       __imp___controlfp          0043c194     msvcrt:MSVCRT.dll
 0002:00000198       __imp____p__commode        0043c198     msvcrt:MSVCRT.dll
 0002:0000019c       __imp____set_app_type      0043c19c     msvcrt:MSVCRT.dll
 0002:000001a0       __imp____p__fmode          0043c1a0     msvcrt:MSVCRT.dll
 0002:000001a4       __imp___initterm           0043c1a4     msvcrt:MSVCRT.dll
 0002:000001a8       __imp___adjust_fdiv        0043c1a8     msvcrt:MSVCRT.dll
 0002:000001ac       __imp____setusermatherr    0043c1ac     msvcrt:MSVCRT.dll
 0002:000001b0       __imp___XcptFilter         0043c1b0     msvcrt:MSVCRT.dll
 0002:000001b4       __imp____getmainargs       0043c1b4     msvcrt:MSVCRT.dll
 0002:000001b8       __imp____p___initenv       0043c1b8     msvcrt:MSVCRT.dll
 0002:000001bc       __imp__atol                0043c1bc     msvcrt:MSVCRT.dll
 0002:000001c0       __imp___exit               0043c1c0     msvcrt:MSVCRT.dll
 0002:000001c4       __imp____lconv_init        0043c1c4     msvcrt:MSVCRT.dll
 0002:000001c8       __imp__vsprintf            0043c1c8     msvcrt:MSVCRT.dll
 0002:000001cc       __imp___open_osfhandle     0043c1cc     msvcrt:MSVCRT.dll
 0002:000001d0       __imp___stat               0043c1d0     msvcrt:MSVCRT.dll
 0002:000001d4       __imp___setjmp3            0043c1d4     msvcrt:MSVCRT.dll
 0002:000001d8       __imp__memmove             0043c1d8     msvcrt:MSVCRT.dll
 0002:000001dc       __imp__realloc             0043c1dc     msvcrt:MSVCRT.dll
 0002:000001e0       __imp___chdir              0043c1e0     msvcrt:MSVCRT.dll
 0002:000001e4       __imp__longjmp             0043c1e4     msvcrt:MSVCRT.dll
 0002:000001e8       __imp__strftime            0043c1e8     msvcrt:MSVCRT.dll
 0002:000001ec       __imp__memcmp              0043c1ec     msvcrt:MSVCRT.dll
 0002:000001f0       __imp__abort               0043c1f0     msvcrt:MSVCRT.dll
 0002:000001f4       __imp__strerror            0043c1f4     msvcrt:MSVCRT.dll
 0002:000001f8       __imp__toupper             0043c1f8     msvcrt:MSVCRT.dll
 0002:000001fc       __imp__difftime            0043c1fc     msvcrt:MSVCRT.dll
 0002:00000200       __imp__getenv              0043c200     msvcrt:MSVCRT.dll
 0002:00000204       __imp__strspn              0043c204     msvcrt:MSVCRT.dll
 0002:00000208       __imp__rand                0043c208     msvcrt:MSVCRT.dll
 0002:0000020c       __imp___except_handler3    0043c20c     msvcrt:MSVCRT.dll
 0002:00000210       __imp___ftol               0043c210     msvcrt:MSVCRT.dll
 0002:00000214       __imp__srand               0043c214     msvcrt:MSVCRT.dll
 0002:00000218       __imp__strncat             0043c218     msvcrt:MSVCRT.dll
 0002:0000021c       __imp__setlocale           0043c21c     msvcrt:MSVCRT.dll
 0002:00000220       __imp__tolower             0043c220     msvcrt:MSVCRT.dll
 0002:00000224       __imp___isctype            0043c224     msvcrt:MSVCRT.dll
 0002:00000228       __imp__strcoll             0043c228     msvcrt:MSVCRT.dll
 0002:0000022c       __imp____mb_cur_max        0043c22c     msvcrt:MSVCRT.dll
 0002:00000230       __imp____p__environ        0043c230     msvcrt:MSVCRT.dll
 0002:00000234       __imp___pctype             0043c234     msvcrt:MSVCRT.dll
 0002:00000238       __imp__strrchr             0043c238     msvcrt:MSVCRT.dll
 0002:0000023c       __imp__memcpy              0043c23c     msvcrt:MSVCRT.dll
 0002:00000240       __imp__strncmp             0043c240     msvcrt:MSVCRT.dll
 0002:00000244       __imp__exit                0043c244     msvcrt:MSVCRT.dll
 0002:00000248       __imp__sprintf             0043c248     msvcrt:MSVCRT.dll
 0002:0000024c       __imp__time                0043c24c     msvcrt:MSVCRT.dll
 0002:00000250       __imp__localtime           0043c250     msvcrt:MSVCRT.dll
 0002:00000254       __imp__strncpy             0043c254     msvcrt:MSVCRT.dll
 0002:00000258       __imp___fstat              0043c258     msvcrt:MSVCRT.dll
 0002:00000258       __imp__fstat               0043c258     msvcrt:MSVCRT.dll
 0002:0000025c       __imp__close               0043c25c     msvcrt:MSVCRT.dll
 0002:0000025c       __imp___close              0043c25c     msvcrt:MSVCRT.dll
 0002:00000260       __imp__strnicmp            0043c260     msvcrt:MSVCRT.dll
 0002:00000260       __imp___strnicmp           0043c260     msvcrt:MSVCRT.dll
 0002:00000264       __imp__stricmp             0043c264     msvcrt:MSVCRT.dll
 0002:00000264       __imp___stricmp            0043c264     msvcrt:MSVCRT.dll
 0002:00000268       __imp___umask              0043c268     msvcrt:MSVCRT.dll
 0002:00000268       __imp__umask               0043c268     msvcrt:MSVCRT.dll
 0002:0000026c       __imp___unlink             0043c26c     msvcrt:MSVCRT.dll
 0002:0000026c       __imp__unlink              0043c26c     msvcrt:MSVCRT.dll
 0002:00000270       __imp___mktemp             0043c270     msvcrt:MSVCRT.dll
 0002:00000270       __imp__mktemp              0043c270     msvcrt:MSVCRT.dll
 0002:00000274       \177MSVCRT_NULL_THUNK_DATA 0043c274     msvcrt:MSVCRT.dll
 0002:00000278       __imp__MessageBoxA@16      0043c278     user32:USER32.dll
 0002:0000027c       __imp__CharToOemBuffA@12   0043c27c     user32:USER32.dll
 0002:00000280       __imp__EnumWindows@8       0043c280     user32:USER32.dll
 0002:00000284       __imp__GetWindowThreadProcessId@8 0043c284     user32:USER32.dll
 0002:00000288       __imp__GetWindowTextA@12   0043c288     user32:USER32.dll
 0002:0000028c       __imp__wsprintfA           0043c28c     user32:USER32.dll
 0002:00000290       __imp__MessageBeep@4       0043c290     user32:USER32.dll
 0002:00000294       __imp__ExitWindowsEx@8     0043c294     user32:USER32.dll
 0002:00000298       \177USER32_NULL_THUNK_DATA 0043c298     user32:USER32.dll
 0002:000002b0       __real@8@3feb8637bd05af6c6800 0043c2b0     jobs.o
 0002:00000314       __IMPORT_DESCRIPTOR_MSVCRT 0043c314     msvcrt:MSVCRT.dll
 0002:00000328       __IMPORT_DESCRIPTOR_ADVAPI32 0043c328     advapi32:ADVAPI32.dll
 0002:0000033c       __IMPORT_DESCRIPTOR_KERNEL32 0043c33c     kernel32:KERNEL32.dll
 0002:00000350       __IMPORT_DESCRIPTOR_USER32 0043c350     user32:USER32.dll
 0002:00000364       __NULL_IMPORT_DESCRIPTOR   0043c364     msvcrt:MSVCRT.dll
 0003:00000000       ___xc_a                    0043e000     msvcrt:cinitexe.obj
 0003:00000004       ___xc_z                    0043e004     msvcrt:cinitexe.obj
 0003:00000008       ___xi_a                    0043e008     msvcrt:cinitexe.obj
 0003:00000010       ___xi_z                    0043e010     msvcrt:cinitexe.obj
 0003:00000024       ??_C@_03CFEO@?$CFs?$CK?$AA@ 0043e024     dirent.o
 0003:00000028       ??_C@_04FIFD@?$CFs?1?$CK?$AA@ 0043e028     dirent.o
 0003:00000030       ??_C@_06CAKM@?$CFc?3?$CFs?$CK?$AA@ 0043e030     dirent.o
 0003:00000038       ??_C@_0BC@CGIN@WNetEnumResourceA?$AA@ 0043e038     dirent.o
 0003:0000004c       ??_C@_0O@DKBO@WNetCloseEnum?$AA@ 0043e04c     dirent.o
 0003:0000005c       ??_C@_0O@GO@WNetOpenEnumA?$AA@ 0043e05c     dirent.o
 0003:0000006c       ??_C@_07LAPH@MPR?4DLL?$AA@ 0043e06c     dirent.o
 0003:00000074       ___realloc_srchlen         0043e074     fork.o
 0003:00000078       ??_C@_09MHEK@ntdll?4dll?$AA@ 0043e078     fork.o
 0003:00000084       ??_C@_0N@JCPG@NtCurrentTeb?$AA@ 0043e084     fork.o
 0003:00000094       __charmax                  0043e094     msvcrt:charmax.obj
 0003:000000a0       ___defaultmatherr          0043e0a0     msvcrt:merr.obj
 0003:00003f74       ___fork_seg_begin          00441f74     fork.o
 0003:00003f78       ___forked                  00441f78     fork.o
 0003:00003f7c       ___fork_stack_begin        00441f7c     fork.o
 0003:00003f80       ___hforkparent             00441f80     fork.o
 0003:00003f84       ___hforkchild              00441f84     fork.o
 0003:00003f88       ___fork_context            00441f88     fork.o
 0003:00003fc8       ___heap_base               00441fc8     fork.o
 0003:00003fcc       ___heap_size               00441fcc     fork.o
 0003:00003fd0       ___heap_top                00441fd0     fork.o
 0003:00003fd4       ___memtop                  00441fd4     fork.o
 0003:00003fd8       ___membot                  00441fd8     fork.o
 0003:00003fdc       ___nextf                   00441fdc     fork.o
 0003:00004050       ___nmalloc                 00442050     fork.o
 0003:000040c4       ___fork_seg_end            004420c4     fork.o
 0003:000040c8       __old_exr                  004420c8     fork.o
 0003:0000416c       __dowildcard               0044216c     msvcrt:wildcard.obj
 0003:00004170       __newmode                  00442170     msvcrt:_newmode.obj
 0003:00004174       __commode                  00442174     msvcrt:xncommod.obj
 0003:00004178       __fmode                    00442178     msvcrt:xtxtmode.obj
 0003:0000417c       _ProcessListFunc           0044217c     <common>
 0003:00004180       _processlist               00442180     <common>
 0003:00004184       _gwBg                      00442184     <common>
 0003:00004186       _gwFg                      00442186     <common>
 0003:00004188       _dontmuckwithmycodepage    00442188     <common>
 0003:0000418c       _gwIsAlreadyIntense        0044218c     <common>
 0003:00004190       _oldcp                     00442190     <common>
 0003:00004194       _ghstdout                  00442194     <common>
 0003:000041a0       _eolbuf                    004421a0     <common>
 0003:00004200       _gscrbuf                   00442200     <common>
 0003:00004218       _BC                        00442218     <common>
 0003:0000421c       _UP                        0044221c     <common>
 0003:00004220       _PC                        00442220     <common>
 0003:00004224       _tputs_baud_rate           00442224     <common>
 0003:00004228       _ospeed                    00442228     <common>
 0003:0000422c       _myNtCurrentTeb            0044222c     <common>
 0003:00004240       _girec                     00442240     <common>
 0003:0000e240       ___nt_want_vcode           0044c240     <common>
 0003:0000e244       _gisWin95                  0044c244     <common>
 0003:0000e260       _gosver                    0044c260     <common>
 0003:0000e2f4       _addedx                    0044c2f4     <common>
 0003:0000e2f8       _expl                      0044c2f8     <common>
 0003:0000e2fc       _clearflag                 0044c2fc     <common>
 0003:0000e300       _ccsuffix                  0044c300     <common>
 0003:0000e304       _instring                  0044c304     <common>
 0003:0000e308       _ccmain                    0044c308     <common>
 0003:0000e30c       _remsuffix                 0044c30c     <common>
 0003:0000e310       _cleareol                  0044c310     <common>
 0003:0000e314       _winchanged                0044c314     <common>
 0003:0000e318       _hasam                     0044c318     <common>
 0003:0000e31c       _virangeflag               0044c31c     <common>
 0003:0000e320       _lastcmd                   0044c320     <common>
 0003:0000e324       _lastcol                   0044c324     <common>
 0003:0000e328       _inwhat                    0044c328     <common>
 0003:0000e32c       _nlnct                     0044c32c     <common>
 0003:0000e330       _showinglist               0044c330     <common>
 0003:0000e334       _vilinerange               0044c334     <common>
 0003:0000e338       _wordflag                  0044c338     <common>
 0003:0000e33c       _garr                      0044c33c     <common>
 0003:0000e340       _heaps                     0044c340     <common>
 0003:0000e344       _mtok                      0044c344     <common>
 0003:0000e348       _dtimeval                  0044c348     <common>
 0003:0000e350       _tok                       0044c350     <common>
 0003:0000e354       _inalmore                  0044c354     <common>
 0003:0000e358       _chwordpos                 0044c358     <common>
 0003:0000e35c       _chwordlen                 0044c35c     <common>
 0003:0000e360       _chwords                   0044c360     <common>
 0003:0000e364       _allusersadded             0044c364     <common>
 0003:0000e368       _glob_pre                  0044c368     <common>
 0003:0000e36c       _glob_suf                  0044c36c     <common>
 0003:0000e370       _testargs                  0044c370     <common>
 0003:0000e374       ___onexitend               0044c374     <common>
 0003:0000e378       ___onexitbegin             0044c378     <common>
 0003:0000e37c       __adjust_fdiv              0044c37c     <common>
 0004:00000000       _bookend1                  0044d000     ntb1.o
 0004:00000004       _doprintdir                0044d004     builtin.o
 0004:00000010       ??_C@_0BD@NGEC@too?5many?5arguments?$AA@ 0044d010     builtin.o
 0004:00000024       ??_C@_0BF@MFCO@not?5enough?5arguments?$AA@ 0044d024     builtin.o
 0004:0000003c       ??_C@_03HKGO@?5?$CFs?$AA@  0044d03c     builtin.o
 0004:00000040       ??_C@_04DCMN@?$CFs?$CFs?$AA@ 0044d040     builtin.o
 0004:00000048       ??_C@_00A@?$AA@            0044d048     builtin.o
 0004:0000004c       ??_C@_0BA@NJA@bad?5option?3?5?9?$CFc?$AA@ 0044d04c     builtin.o
 0004:0000005c       ??_C@_01GJD@?9?$AA@        0044d05c     builtin.o
 0004:00000060       ??_C@_02EKLH@ne?$AA@       0044d060     builtin.o
 0004:00000064       ??_C@_01FCOA@?5?$AA@       0044d064     builtin.o
 0004:00000068       ??_C@_0BP@CEPP@no?5such?5hash?5table?5element?3?5?$CFs?$AA@ 0044d068     builtin.o
 0004:00000088       ??_C@_0BB@PDNP@bad?5pattern?5?3?5?$CFs?$AA@ 0044d088     builtin.o
 0004:0000009c       ??_C@_0BJ@BILD@string?5expected?5after?5?9o?$AA@ 0044d09c     builtin.o
 0004:000000b8       ??_C@_0BI@IEAO@can?8t?5change?5option?3?5?$CFs?$AA@ 0044d0b8     builtin.o
 0004:000000d0       ??_C@_0BD@JNG@no?5such?5option?3?5?$CFs?$AA@ 0044d0d0     builtin.o
 0004:000000e4       ??_C@_0BJ@HAFL@can?8t?5change?5option?3?5?9?$CFc?$AA@ 0044d0e4     builtin.o
 0004:00000100       ??_C@_02CKJF@?9?9?$AA@     0044d100     builtin.o
 0004:00000104       ??_C@_0BA@KJFP@bad?5pattern?3?5?$CFs?$AA@ 0044d104     builtin.o
 0004:00000114       ??_C@_02ELCB@no?$AA@       0044d114     builtin.o
 0004:00000118       ??_C@_08GPNB@?$CF?922s?$CFs?6?$AA@ 0044d118     builtin.o
 0004:00000124       ??_C@_0L@PPGI@no?$CF?920s?$CFs?6?$AA@ 0044d124     builtin.o
 0004:00000130       ??_C@_02PHBM@on?$AA@       0044d130     builtin.o
 0004:00000134       ??_C@_03OJPB@off?$AA@      0044d134     builtin.o
 0004:00000138       ??_C@_0BJ@CELG@Current?5option?5settings?6?$AA@ 0044d138     builtin.o
 0004:00000154       ??_C@_0BA@EECE@no?5such?5job?3?5?$CFd?$AA@ 0044d154     builtin.o
 0004:00000164       ??_C@_0BK@PJH@job?5already?5in?5background?$AA@ 0044d164     builtin.o
 0004:00000180       ??_C@_02HHDK@?$CJ?6?$AA@   0044d180     builtin.o
 0004:00000184       ??_C@_07BDAH@?$CIpwd?5?3?5?$AA@ 0044d184     builtin.o
 0004:0000018c       ??_C@_0P@PFCB@no?5current?5job?$AA@ 0044d18c     builtin.o
 0004:0000019c       ??_C@_0BO@JOCD@no?5job?5control?5in?5this?5shell?4?$AA@ 0044d19c     builtin.o
 0004:000001bc       ??_C@_0BD@MKJI@kill?5?$CFs?5failed?3?5?$CFe?$AA@ 0044d1bc     builtin.o
 0004:000001d0       ??_C@_0BA@CENC@illegal?5pid?3?5?$CFs?$AA@ 0044d1d0     builtin.o
 0004:000001e0       ??_C@_0CD@IDPF@type?5kill?5?9l?5for?5a?5List?5of?5signa@ 0044d1e0     builtin.o
 0004:00000204       ??_C@_02DILL@?$CFs?$AA@    0044d204     builtin.o
 0004:00000208       ??_C@_03HMFC@?$CFd?6?$AA@  0044d208     builtin.o
 0004:0000020c       ??_C@_03HHKO@?$CFs?6?$AA@  0044d20c     builtin.o
 0004:00000210       ??_C@_0BG@EHAF@unknown?5signal?3?5SIG?$CFs?$AA@ 0044d210     builtin.o
 0004:00000228       ??_C@_04CHLA@kill?$AA@     0044d228     builtin.o
 0004:00000230       ??_C@_0BK@LPJG@can?8t?5suspend?5login?5shell?$AA@ 0044d230     builtin.o
 0004:0000024c       ??_C@_0BC@CBAI@job?5not?5found?3?5?$CFs?$AA@ 0044d24c     builtin.o
 0004:00000260       ??_C@_0BC@NPCF@?$CF?$CF?$CFs?3?5no?5such?5job?$AA@ 0044d260     builtin.o
 0004:00000274       ??_C@_0BA@FNLE@no?5previous?5job?$AA@ 0044d274     builtin.o
 0004:00000284       ??_C@_04ODNP@?6?$CFd?7?$AA@ 0044d284     builtin.o
 0004:0000028c       ??_C@_02EBNE@0?7?$AA@      0044d28c     builtin.o
 0004:00000290       ??_C@_01PJCK@?4?$AA@       0044d290     builtin.o
 0004:00000294       ??_C@_0BG@JKFE@string?5not?5in?5pwd?3?5?$CFs?$AA@ 0044d294     builtin.o
 0004:000002ac       ??_C@_0BL@MKHI@no?5such?5entry?5in?5dir?5stack?$AA@ 0044d2ac     builtin.o
 0004:000002c8       ??_C@_0BG@FM@directory?5stack?5empty?$AA@ 0044d2c8     builtin.o
 0004:000002e0       ??_C@_06LPFD@?$CFe?3?5?$CFs?$AA@ 0044d2e0     builtin.o
 0004:000002e8       ??_C@_05NKLH@?$CFc?3?$CFs?$AA@ 0044d2e8     builtin.o
 0004:000002f0       ??_C@_04FPFL@?$CFc?3?1?$AA@ 0044d2f0     builtin.o
 0004:000002f8       ??_C@_05LELA@?$CFs?1?$CFs?$AA@ 0044d2f8     builtin.o
 0004:00000300       ??_C@_01FDLN@?1?$AA@       0044d300     builtin.o
 0004:00000304       ??_C@_0N@PLMF@DIRSTACKSIZE?$AA@ 0044d304     builtin.o
 0004:00000314       ??_C@_05PGKE@chpwd?$AA@    0044d314     builtin.o
 0004:0000031c       ??_C@_06GOEL@OLDPWD?$AA@   0044d31c     builtin.o
 0004:00000324       ??_C@_03KAF@PWD?$AA@       0044d324     builtin.o
 0004:00000328       ??_C@_0BM@MENE@extraneous?5commands?5ignored?$AA@ 0044d328     builtin.o
 0004:00000344       ??_C@_0BK@LGMC@no?5compctl?5defined?5for?5?$CFs?$AA@ 0044d344     builtin.o
 0004:00000360       ??_C@_05MPDO@FIRST?$AA@    0044d360     builtin.o
 0004:00000368       ??_C@_07FBHA@DEFAULT?$AA@  0044d368     builtin.o
 0004:00000370       ??_C@_07KNFB@COMMAND?$AA@  0044d370     builtin.o
 0004:00000378       ??_C@_0CK@IBGF@recursive?5extended?5completion?5no@ 0044d378     builtin.o
 0004:000003a4       ??_C@_0BN@LJLE@condition?5expected?5after?5?9?$CFc?$AA@ 0044d3a4     builtin.o
 0004:000003c4       ??_C@_0BH@IKDE@illegal?5use?5of?5?9L?5flag?$AA@ 0044d3c4     builtin.o
 0004:000003dc       ??_C@_0CF@EGCC@misplaced?5first?5completion?5?$CI?9T?$CJ?5@ 0044d3dc     builtin.o
 0004:00000404       ??_C@_0CH@GBKJ@misplaced?5default?5completion?5?$CI?9D@ 0044d404     builtin.o
 0004:0000042c       ??_C@_0CH@NMBE@misplaced?5command?5completion?5?$CI?9C@ 0044d42c     builtin.o
 0004:00000454       ??_C@_0BK@BBNA@number?5expected?5after?5?9?$CFc?$AA@ 0044d454     builtin.o
 0004:00000470       ??_C@_0BK@LNDA@missing?5pattern?5after?5?9?$CFc?$AA@ 0044d470     builtin.o
 0004:0000048c       ??_C@_0CA@BEGM@command?5name?5expected?5after?5?9?$CFc?$AA@ 0044d48c     builtin.o
 0004:000004ac       ??_C@_0CC@FJIH@command?5string?5expected?5after?5?9?$CF@ 0044d4ac     builtin.o
 0004:000004d0       ??_C@_0CA@HBFC@glob?5pattern?5expected?5after?5?9?$CFc?$AA@ 0044d4d0     builtin.o
 0004:000004f0       ??_C@_0BK@MICF@string?5expected?5after?5?9?$CFc?$AA@ 0044d4f0     builtin.o
 0004:0000050c       ??_C@_0CB@EBDB@function?5name?5expected?5after?5?9?$CFc@ 0044d50c     builtin.o
 0004:00000530       ??_C@_0CB@EMFA@variable?5name?5expected?5after?5?9?$CFc@ 0044d530     builtin.o
 0004:00000554       ??_C@_0DA@KODF@recursive?5xor?8d?5default?5completi@ 0044d554     builtin.o
 0004:00000584       ??_C@_02NFOH@?9?$CL?$AA@   0044d584     builtin.o
 0004:00000588       ??_C@_0BG@CKBF@missing?5command?5names?$AA@ 0044d588     builtin.o
 0004:000005a0       ??_C@_0BD@KCLP@error?5in?5condition?$AA@ 0044d5a0     builtin.o
 0004:000005b4       ??_C@_0BP@NLMG@error?5after?5condition?5code?3?5?$CFs?$AA@ 0044d5b4     builtin.o
 0004:000005d4       ??_C@_0CM@HBIO@expected?5condition?5after?5conditi@ 0044d5d4     builtin.o
 0004:00000600       ??_C@_0BL@GCIF@unknown?5condition?5code?3?5?$CFs?$AA@ 0044d600     builtin.o
 0004:0000061c       ??_C@_0CI@NKG@can?8t?5set?5?9D?0?5?9T?0?5and?5?9C?5simulta@ 0044d61c     builtin.o
 0004:00000644       ??_C@_0BP@GEBI@illegal?5combination?5of?5options?$AA@ 0044d644     builtin.o
 0004:00000664       ??_C@_02CMLD@?5?$CL?$AA@   0044d664     builtin.o
 0004:00000668       ??_C@_03GIEA@?5?9?9?$AA@   0044d668     builtin.o
 0004:0000066c       ??_C@_03CKJJ@?5?0?5?$AA@   0044d66c     builtin.o
 0004:00000670       ??_C@_05BBIB@?$CFd?0?$CFd?$AA@ 0044d670     builtin.o
 0004:00000678       ??_C@_03NBMA@?$CFd?0?$AA@  0044d678     builtin.o
 0004:0000067c       ??_C@_0O@HIGI@?5pcCwWsSnNmrR?$AA@ 0044d67c     builtin.o
 0004:0000068c       ??_C@_02NCFH@?5?8?$AA@     0044d68c     builtin.o
 0004:00000690       ??_C@_03GEDL@?5?9x?$AA@    0044d690     builtin.o
 0004:00000694       ??_C@_07IFIJ@?5?9H?5?$CFd?5?$AA@ 0044d694     builtin.o
 0004:0000069c       ??_C@_02NDMB@?5?9?$AA@     0044d69c     builtin.o
 0004:000006a0       ??_C@_03MIDP@?5?9T?$AA@    0044d6a0     builtin.o
 0004:000006a4       ??_C@_03GBEP@?5?9D?$AA@    0044d6a4     builtin.o
 0004:000006a8       ??_C@_03DEKK@?5?9C?$AA@    0044d6a8     builtin.o
 0004:000006ac       ??_C@_07GNPI@compctl?$AA@  0044d6ac     builtin.o
 0004:000006b4       ??_C@_0BN@NAPP@fcqovbAIFpEjrzBRGudeNOZUnQmw?$AA@ 0044d6b4     builtin.o
 0004:000006d4       ??_C@_04JPNB@?8?2?8?8?$AA@ 0044d6d4     builtin.o
 0004:000006dc       ??_C@_02LDAC@?8?8?$AA@     0044d6dc     builtin.o
 0004:000006e0       ??_C@_05HKBD@?5?9?$CFc?5?$AA@ 0044d6e0     builtin.o
 0004:000006e8       ??_C@_0BJ@ELPG@can?8t?5open?5temp?5file?3?5?$CFe?$AA@ 0044d6e8     builtin.o
 0004:00000704       ??_C@_02GLKO@vi?$AA@       0044d704     builtin.o
 0004:00000708       ??_C@_06HKCK@FCEDIT?$AA@   0044d708     builtin.o
 0004:00000710       ??_C@_01LLF@w?$AA@         0044d710     builtin.o
 0004:00000714       ??_C@_02JB@fc?$AA@         0044d714     builtin.o
 0004:00000718       ??_C@_08JOMO@HISTFILE?$AA@ 0044d718     builtin.o
 0004:00000724       ??_C@_0BG@DHGH@invalid?5match?5pattern?$AA@ 0044d724     builtin.o
 0004:0000073c       ??_C@_0BG@IGFA@not?5interactive?5shell?$AA@ 0044d73c     builtin.o
 0004:00000754       ??_C@_0BE@GJJC@event?5not?5found?3?5?$CFs?$AA@ 0044d754     builtin.o
 0004:00000768       ??_C@_0BH@KIO@bad?5history?5number?3?5?$CFd?$AA@ 0044d768     builtin.o
 0004:00000780       ??_C@_0BL@KDF@no?5substitutions?5performed?$AA@ 0044d780     builtin.o
 0004:0000079c       ??_C@_0BC@BHNA@no?5such?5event?3?5?$CFd?$AA@ 0044d79c     builtin.o
 0004:000007b0       ??_C@_0M@HLPI@?$CFld?3?$CF02ld?5?5?$AA@ 0044d7b0     builtin.o
 0004:000007bc       ??_C@_0M@MBM@?$CF02d?3?$CF02d?5?5?$AA@ 0044d7bc     builtin.o
 0004:000007c8       ??_C@_09GMFG@?$CFd?1?$CFd?1?$CFd?5?$AA@ 0044d7c8     builtin.o
 0004:000007d4       ??_C@_09GHJB@?$CFd?4?$CFd?4?$CFd?5?$AA@ 0044d7d4     builtin.o
 0004:000007e0       ??_C@_0O@ECJD@?$CFd?9?$CF02d?9?$CF02d?5?$AA@ 0044d7e0     builtin.o
 0004:000007f0       ??_C@_05GDPE@?$CF5d?5?5?$AA@ 0044d7f0     builtin.o
 0004:000007f8       ??_C@_0BG@EMFI@not?5an?5identifier?3?5?$CFs?$AA@ 0044d7f8     builtin.o
 0004:00000810       ??_C@_0L@OHCP@iLRZlurtxU?$AA@ 0044d810     builtin.o
 0004:0000081c       ??_C@_0BC@JMBP@invalid?5option?$CIs?$CJ?$AA@ 0044d81c     builtin.o
 0004:00000830       ??_C@_0BF@EACP@no?5such?5variable?3?5?$CFs?$AA@ 0044d830     builtin.o
 0004:00000848       ??_C@_0CB@PMAA@prompt?5string?5expected?5after?5?9?$CFc@ 0044d848     builtin.o
 0004:0000086c       ??_C@_0BD@KAPN@unknown?5option?3?5?$CFs?$AA@ 0044d86c     builtin.o
 0004:00000880       ??_C@_0BB@OKIB@missing?5variable?$AA@ 0044d880     builtin.o
 0004:00000894       ??_C@_0O@CAPA@?$CFs?5not?5found?6?$AA@ 0044d894     builtin.o
 0004:000008a4       ??_C@_09NCLA@?$CFs?5is?5?$CFs?6?$AA@ 0044d8a4     builtin.o
 0004:000008b0       ??_C@_04MMAH@hash?$AA@     0044d8b0     builtin.o
 0004:000008b8       ??_C@_0BE@KIGH@no?5such?5command?3?5?$CFs?$AA@ 0044d8b8     builtin.o
 0004:000008cc       ??_C@_0BL@FDHJ@no?5such?5directory?5name?3?5?$CFs?$AA@ 0044d8cc     builtin.o
 0004:000008e8       ??_C@_0BN@GFPF@not?5available?5on?5this?5system?$AA@ 0044d8e8     builtin.o
 0004:00000908       ??_C@_0P@BBIJ@bad?5mode?5on?5fd?$AA@ 0044d908     builtin.o
 0004:00000918       ??_C@_0BA@FFAC@bad?5file?5number?$AA@ 0044d918     builtin.o
 0004:00000928       ??_C@_05PMJD@?$HO?$CFs?$CFs?$AA@ 0044d928     builtin.o
 0004:00000930       ??_C@_0BH@MAJ@no?5such?5capability?3?5?$CFs?$AA@ 0044d930     builtin.o
 0004:00000948       ??_C@_03LGKI@yes?$AA@      0044d948     builtin.o
 0004:0000094c       ??_C@_0BK@MDB@shift?5count?5must?5be?5?$DM?$DN?5$?$CD?$AA@ 0044d94c     builtin.o
 0004:00000968       ??_C@_0CH@OIJK@argument?5to?5shift?5must?5be?5non?9ne@ 0044d968     builtin.o
 0004:00000990       ??_C@_0CD@ONOJ@argument?5expected?5after?5?9?$CFc?5opti@ 0044d990     builtin.o
 0004:000009b4       ??_C@_01PKMN@?$DP?$AA@     0044d9b4     builtin.o
 0004:000009b8       ??_C@_01PKAG@?3?$AA@       0044d9b8     builtin.o
 0004:000009bc       ??_C@_0CM@LJMB@not?5in?5while?0?5until?0?5select?0?5or?5@ 0044d9bc     builtin.o
 0004:000009e8       ??_C@_0BA@OKBI@not?5login?5shell?$AA@ 0044d9e8     builtin.o
 0004:000009f8       ??_C@_0N@DHEF@?1etc?1zlogout?$AA@ 0044d9f8     builtin.o
 0004:00000a08       ??_C@_08EIGD@?4zlogout?$AA@ 0044da08     builtin.o
 0004:00000a14       ??_C@_02MECO@?$CFd?$AA@    0044da14     builtin.o
 0004:00000a18       ??_C@_0CP@NHOH@option?5valid?5only?5in?5functions?5c@ 0044da18     builtin.o
 0004:00000a48       ??_C@_0CJ@BMFI@not?5interactive?5and?5can?8t?5open?5t@ 0044da48     builtin.o
 0004:00000a74       ??_C@_08JKBE@?1dev?1tty?$AA@ 0044da74     builtin.o
 0004:00000a80       ??_C@_0CA@ENHJ@only?5one?5array?5argument?5allowed?$AA@ 0044da80     builtin.o
 0004:00000aa0       ??_C@_05LMNA@REPLY?$AA@    0044daa0     builtin.o
 0004:00000aa8       ??_C@_05NHFP@reply?$AA@    0044daa8     builtin.o
 0004:00000ab0       ??_C@_05DJIL@emacs?$AA@    0044dab0     builtin.o
 0004:00000ab8       ??_C@_05EHLE@sched?$AA@    0044dab8     builtin.o
 0004:00000ac0       ??_C@_0BD@BLB@bad?5time?5specifier?$AA@ 0044dac0     builtin.o
 0004:00000ad4       ??_C@_0L@NKKI@?$CF3d?5?$CFs?5?$CFs?6?$AA@ 0044dad4     builtin.o
 0004:00000ae0       ??_C@_0BC@JNCE@?$CFa?5?$CFb?5?$CFe?5?$CFk?3?$CFM?3?$CFS?$AA@ 0044dae0     builtin.o
 0004:00000af4       ??_C@_0BG@JOBG@not?5that?5many?5entries?$AA@ 0044daf4     builtin.o
 0004:00000b0c       ??_C@_0CC@FBBP@usage?5for?5delete?3?5sched?5?9?$DMitem?$CD?$DO@ 0044db0c     builtin.o
 0004:00000b30       ??_C@_01KMMP@?$CJ?$AA@     0044db30     builtin.o
 0004:00000b34       ??_C@_01GFI@?$CI?$AA@      0044db34     builtin.o
 0004:00000b38       ??_C@_01PIHH@?$CB?$AA@     0044db38     builtin.o
 0004:00000b3c       ??_C@_02HBLB@?9a?$AA@      0044db3c     builtin.o
 0004:00000b40       ??_C@_02NKHL@?9o?$AA@      0044db40     builtin.o
 0004:00000b44       ??_C@_0BC@DNCI@argument?5expected?$AA@ 0044db44     builtin.o
 0004:00000b58       ??_C@_0M@ILLL@parse?5error?$AA@ 0044db58     builtin.o
 0004:00000b64       ??_C@_0N@MLHJ@?8?$FN?8?5expected?$AA@ 0044db64     builtin.o
 0004:00000b74       ??_C@_01FIMD@?$FN?$AA@     0044db74     builtin.o
 0004:00000b78       ??_C@_0BF@BILD@undefined?5signal?3?5?$CFs?$AA@ 0044db78     builtin.o
 0004:00000b90       ??_C@_0BM@KAPO@couldn?8t?5parse?5trap?5command?$AA@ 0044db90     builtin.o
 0004:00000bac       ??_C@_04NNOM@?5?$CFs?6?$AA@ 0044dbac     builtin.o
 0004:00000bb4       ??_C@_08DFAH@trap?5?9?9?5?$AA@ 0044dbb4     builtin.o
 0004:00000bc0       ??_C@_0P@NLDA@trap?5?9?9?5?8?8?5?$CFs?6?$AA@ 0044dbc0     builtin.o
 0004:00000bd0       ??_C@_06MCGM@TRAP?$CFs?$AA@ 0044dbd0     builtin.o
 0004:00000bd8       ??_C@_0BB@OOEL@tty?5is?5?$CFsfrozen?6?$AA@ 0044dbd8     builtin.o
 0004:00000bec       ??_C@_04PPAE@not?5?$AA@    0044dbec     builtin.o
 0004:00000bf4       ??_C@_0CD@MKFM@bad?5character?5in?5symbolic?5mode?3?5@ 0044dbf4     builtin.o
 0004:00000c18       ??_C@_0CB@MOJA@bad?5symbolic?5mode?5permission?3?5?$CFc@ 0044dc18     builtin.o
 0004:00000c3c       ??_C@_0BP@IDIH@bad?5symbolic?5mode?5operator?3?5?$CFc?$AA@ 0044dc3c     builtin.o
 0004:00000c5c       ??_C@_09MMPG@bad?5umask?$AA@ 0044dc5c     builtin.o
 0004:00000c68       ??_C@_05OEJN@?$CF03o?6?$AA@ 0044dc68     builtin.o
 0004:00000c70       ??_C@_03DMNL@rwx?$AA@      0044dc70     builtin.o
 0004:00000c74       ??_C@_03LDHC@?$CFc?$DN?$AA@ 0044dc74     builtin.o
 0004:00000c78       ??_C@_03BEIG@ugo?$AA@      0044dc78     builtin.o
 0004:00000c7c       ??_C@_0P@BHNC@bad?5assignment?$AA@ 0044dc7c     builtin.o
 0004:00000c8c       ??_C@_02OOND@?4?4?$AA@     0044dc8c     compat.o
 0004:00000c90       ??_C@_0BD@KJAO@bad?5cond?5structure?$AA@ 0044dc90     cond.o
 0004:00000ca4       ??_C@_08IGDI@?1dev?1fd?1?$AA@ 0044dca4     cond.o
 0004:00000cb8       _list_pipe                 0044dcb8     exec.o
 0004:00000cbc       _simple_pline              0044dcbc     exec.o
 0004:00000ccc       _subsh_close               0044dccc     exec.o
 0004:00000cfc       ??_C@_0BA@CNFA@fork?5failed?3?5?$CFe?$AA@ 0044dcfc     exec.o
 0004:00000d0c       ??_C@_0P@PAKM@job?5table?5full?$AA@ 0044dd0c     exec.o
 0004:00000d1c       ??_C@_07NOMO@?1bin?1sh?$AA@ 0044dd1c     exec.o
 0004:00000d24       ??_C@_02INDJ@sh?$AA@       0044dd24     exec.o
 0004:00000d28       ??_C@_0BG@FBEJ@command?5not?5found?3?5?$CFs?$AA@ 0044dd28     exec.o
 0004:00000d40       ??_C@_0BF@LPLP@command?5too?5long?3?5?$CFs?$AA@ 0044dd40     exec.o
 0004:00000d58       ??_C@_03PAJH@?9?$CFs?$AA@  0044dd58     exec.o
 0004:00000d5c       ??_C@_05JFNJ@ARGV0?$AA@    0044dd5c     exec.o
 0004:00000d64       ??_C@_04IFNE@stty?$AA@     0044dd64     exec.o
 0004:00000d6c       ??_C@_04OKPB@STTY?$AA@     0044dd6c     exec.o
 0004:00000d74       ??_C@_0BN@JOLF@zsh?3?5job?5can?8t?5be?5suspended?6?$AA@ 0044dd74     exec.o
 0004:00000d94       ??_C@_0BM@BFMB@file?5mode?5mismatch?5on?5fd?5?$CFd?$AA@ 0044dd94     exec.o
 0004:00000db0       ??_C@_02CEEM@?$CJ?5?$AA@   0044ddb0     exec.o
 0004:00000db4       ??_C@_02DCOG@?$CI?5?$AA@   0044ddb4     exec.o
 0004:00000db8       ??_C@_03CENI@?$CFs?5?$AA@  0044ddb8     exec.o
 0004:00000dbc       ??_C@_03NJNL@?$CFs?$DN?$AA@ 0044ddbc     exec.o
 0004:00000dc0       ??_C@_05CEOJ@SHLVL?$AA@    0044ddc0     exec.o
 0004:00000dc8       ??_C@_0BA@CCMC@write?5error?3?5?$CFe?$AA@ 0044ddc8     exec.o
 0004:00000dd8       ??_C@_0P@OHCC@zsh?3?5exit?5?$CFld?6?$AA@ 0044ddd8     exec.o
 0004:00000de8       ??_C@_06CLNL@?$CFs?3?5?$CFe?$AA@ 0044dde8     exec.o
 0004:00000df0       ??_C@_02GOLJ@?$CFe?$AA@    0044ddf0     exec.o
 0004:00000df4       ??_C@_02BJHE@cd?$AA@       0044ddf4     exec.o
 0004:00000df8       ??_C@_02JLFI@rm?$AA@       0044ddf8     exec.o
 0004:00000dfc       ??_C@_0BE@EKMN@no?5such?5builtin?3?5?$CFs?$AA@ 0044ddfc     exec.o
 0004:00000e10       ??_C@_0BM@EJMA@redirection?5with?5no?5command?$AA@ 0044de10     exec.o
 0004:00000e2c       ??_C@_02KKMN@fg?$AA@       0044de2c     exec.o
 0004:00000e30       ??_C@_02PAGH@bg?$AA@       0044de30     exec.o
 0004:00000e34       ??_C@_06CDCG@disown?$AA@   0044de34     exec.o
 0004:00000e3c       ??_C@_0BJ@PNPB@can?8t?5open?5?1dev?1null?3?5?$CFe?$AA@ 0044de3c     exec.o
 0004:00000e58       ??_C@_09CJPE@?1dev?1null?$AA@ 0044de58     exec.o
 0004:00000e64       ??_C@_01LHO@r?$AA@         0044de64     exec.o
 0004:00000e68       ??_C@_05HDFJ@oops?4?$AA@   0044de68     exec.o
 0004:00000e70       ??_C@_0CE@MACD@parse?5error?5in?5process?5substitut@ 0044de70     exec.o
 0004:00000e94       ??_C@_0CO@DKMN@doesn?8t?5look?5like?5your?5system?5su@ 0044de94     exec.o
 0004:00000ec4       ??_C@_04CELO@TRAP?$AA@     0044dec4     exec.o
 0004:00000ecc       ??_C@_0BH@FPDD@function?5not?5found?3?5?$CFs?$AA@ 0044decc     exec.o
 0004:00000ee4       ??_C@_08DBBK@TRAPEXIT?$AA@ 0044dee4     exec.o
 0004:00000ef0       ??_C@_0BF@FEGL@no?5matches?5found?3?5?$CFs?$AA@ 0044def0     glob.o
 0004:00000f08       ??_C@_0BH@GLMD@unknown?5file?5attribute?$AA@ 0044df08     glob.o
 0004:00000f20       ??_C@_0N@GDKF@unknown?5user?$AA@ 0044df20     glob.o
 0004:00000f30       ??_C@_0O@LPLD@unknown?5group?$AA@ 0044df30     glob.o
 0004:00000f40       ??_C@_0BE@BEAF@missing?5end?5of?5name?$AA@ 0044df40     glob.o
 0004:00000f54       ??_C@_0BA@MPEG@number?5expected?$AA@ 0044df54     glob.o
 0004:00000f64       ??_C@_0BG@KNHB@octal?5number?5expected?$AA@ 0044df64     glob.o
 0004:00000f7c       ??_C@_0BF@CFDL@file?5number?5expected?$AA@ 0044df7c     glob.o
 0004:00000f94       ??_C@_04GJMI@?$CF0?$CKd?$AA@ 0044df94     glob.o
 0004:00000f9c       ??_C@_03CPCE@?$CFd?5?$AA@  0044df9c     glob.o
 0004:00000fa0       ??_C@_0CI@JBPL@no?5idea?5how?5you?5got?5this?5error?5m@ 0044dfa0     glob.o
 0004:00000fc8       ??_C@_01FDHG@?$CK?$AA@     0044dfc8     glob.o
 0004:00000fcc       ??_C@_04NDNP@?5is?5?$AA@   0044dfcc     hashtable.o
 0004:00000fd4       ??_C@_0P@PDL@?5is?5hashed?5to?5?$AA@ 0044dfd4     hashtable.o
 0004:00000fe4       ??_C@_03NJAE@?6?$HN?6?$AA@ 0044dfe4     hashtable.o
 0004:00000fe8       ??_C@_07CCOD@?5?$CI?$CJ?5?$HL?6?7?$AA@ 0044dfe8     hashtable.o
 0004:00000ff0       ??_C@_08GKAN@?5?$CI?$CJ?5?$HL?5?$HN?6?$AA@ 0044dff0     hashtable.o
 0004:00000ffc       ??_C@_07BPPL@traced?5?$AA@ 0044dffc     hashtable.o
 0004:00001004       ??_C@_0L@GBBA@undefined?5?$AA@ 0044e004     hashtable.o
 0004:00001010       ??_C@_0BG@JFDF@?5is?5a?5shell?5function?6?$AA@ 0044e010     hashtable.o
 0004:00001028       ??_C@_0BH@PPI@?$CFs?5is?5a?5shell?5builtin?6?$AA@ 0044e028     hashtable.o
 0004:00001040       ??_C@_0BM@BJMG@?$CFs?3?5shell?5built?9in?5command?6?$AA@ 0044e040     hashtable.o
 0004:0000105c       ??_C@_0BH@OGKE@?$CFs?5is?5a?5reserved?5word?6?$AA@ 0044e05c     hashtable.o
 0004:00001074       ??_C@_0BJ@CDNN@?$CFs?3?5shell?5reserved?5word?6?$AA@ 0044e074     hashtable.o
 0004:00001090       ??_C@_0O@OPMJ@which?9command?$AA@ 0044e090     hashtable.o
 0004:000010a0       ??_C@_06CEDI@whence?$AA@   0044e0a0     hashtable.o
 0004:000010a8       ??_C@_08PIEH@run?9help?$AA@ 0044e0a8     hashtable.o
 0004:000010b4       ??_C@_03HIDB@man?$AA@      0044e0b4     hashtable.o
 0004:000010b8       ??_C@_03LGMK@?9?9?5?$AA@   0044e0b8     hashtable.o
 0004:000010bc       ??_C@_03IEGO@?9g?5?$AA@    0044e0bc     hashtable.o
 0004:000010c0       ??_C@_06NNMB@alias?5?$AA@  0044e0c0     hashtable.o
 0004:000010c8       ??_C@_0BC@ENHC@?5is?5an?5alias?5for?5?$AA@ 0044e0c8     hashtable.o
 0004:000010dc       ??_C@_0BI@MCDG@?5is?5a?5global?5alias?5for?5?$AA@ 0044e0dc     hashtable.o
 0004:000010f4       ??_C@_0O@DBPK@?3?5aliased?5to?5?$AA@ 0044e0f4     hashtable.o
 0004:00001104       ??_C@_0BH@HJJA@?3?5globally?5aliased?5to?5?$AA@ 0044e104     hashtable.o
 0004:0000111c       ??_C@_04CBAD@?$CFld?6?$AA@ 0044e11c     hashtable.o
 0004:00001124       ??_C@_09BKH@exported?5?$AA@ 0044e124     hashtable.o
 0004:00001130       ??_C@_07KOIO@tagged?5?$AA@ 0044e130     hashtable.o
 0004:00001138       ??_C@_09FCHO@readonly?5?$AA@ 0044e138     hashtable.o
 0004:00001144       ??_C@_0L@DOEL@uppercase?5?$AA@ 0044e144     hashtable.o
 0004:00001150       ??_C@_0L@LCEN@lowercase?5?$AA@ 0044e150     hashtable.o
 0004:0000115c       ??_C@_0BA@KBNN@zero?5filled?5?$CFd?5?$AA@ 0044e15c     hashtable.o
 0004:0000116c       ??_C@_0BE@EODF@right?5justified?5?$CFd?5?$AA@ 0044e16c     hashtable.o
 0004:00001180       ??_C@_0BD@HEHP@left?5justified?5?$CFd?5?$AA@ 0044e180     hashtable.o
 0004:00001194       ??_C@_06JGCH@array?5?$AA@  0044e194     hashtable.o
 0004:0000119c       ??_C@_08KNEB@integer?5?$AA@ 0044e19c     hashtable.o
 0004:000011b0       _hwgetword                 0044e1b0     hist.o
 0004:000011b4       ??_C@_0BE@IAHP@substitution?5failed?$AA@ 0044e1b4     hist.o
 0004:000011c8       ??_C@_0N@JKIB@?8?$HN?8?5expected?$AA@ 0044e1c8     hist.o
 0004:000011d8       ??_C@_0BD@OHOB@modifier?5failed?3?5r?$AA@ 0044e1d8     hist.o
 0004:000011ec       ??_C@_0BJ@OJKB@no?5previous?5substitution?$AA@ 0044e1ec     hist.o
 0004:00001208       ??_C@_0BD@BIJD@modifier?5failed?3?5t?$AA@ 0044e208     hist.o
 0004:0000121c       ??_C@_0BF@NBHA@illegal?5modifier?3?5?$CFc?$AA@ 0044e21c     hist.o
 0004:00001234       ??_C@_0BD@BLHE@modifier?5failed?3?5e?$AA@ 0044e234     hist.o
 0004:00001248       ??_C@_0BD@EPAH@modifier?5failed?3?5h?$AA@ 0044e248     hist.o
 0004:0000125c       ??_C@_0BM@NNNJ@Ambiguous?5history?5reference?$AA@ 0044e25c     hist.o
 0004:00001278       ??_C@_0BC@OLEF@no?5such?5event?3?5?$CFs?$AA@ 0044e278     hist.o
 0004:0000128c       ??_C@_01BJG@?6?$AA@        0044e28c     hist.o
 0004:00001290       ??_C@_0CB@MJPK@?$CF?$CF?5with?5no?5previous?5word?5matched@ 0044e290     hist.o
 0004:000012b4       ??_C@_0BG@PIFL@no?5such?5word?5in?5event?$AA@ 0044e2b4     hist.o
 0004:000012cc       ??_C@_0BI@JFFO@can?8t?5read?5history?5file?$AA@ 0044e2cc     hist.o
 0004:000012e4       ??_C@_0BM@KHPF@can?8t?5write?5history?5file?5?$CFs?$AA@ 0044e2e4     hist.o
 0004:00001300       ??_C@_0L@EFIJ@?3?5?$CFld?3?$CFld?$DL?$AA@ 0044e300     hist.o
 0004:0000130c       ??_C@_01FNLH@a?$AA@        0044e30c     hist.o
 0004:00001310       ??_C@_08NIOO@SAVEHIST?$AA@ 0044e310     hist.o
 0004:00001320       _sigmsg                    0044e320     init.o
 0004:00001380       _sigs                      0044e380     init.o
 0004:000013e8       _redirtab                  0044e3e8     init.o
 0004:00001424       _nulstring                 0044e424     init.o
 0004:00001428       _nulstrlen                 0044e428     init.o
 0004:0000142c       _path                      0044e42c     init.o
 0004:00001430       _cdpath                    0044e430     init.o
 0004:00001434       _fpath                     0044e434     init.o
 0004:00001438       _watch                     0044e438     init.o
 0004:0000143c       _mailpath                  0044e43c     init.o
 0004:00001440       _manpath                   0044e440     init.o
 0004:00001444       _fignore                   0044e444     init.o
 0004:00001448       _psvar                     0044e448     init.o
 0004:0000144c       _yytext                    0044e44c     init.o
 0004:00001450       _noerrexit                 0044e450     init.o
 0004:00001454       _nohistsave                0044e454     init.o
 0004:00001458       _errflag                   0044e458     init.o
 0004:0000145c       _trapreturn                0044e45c     init.o
 0004:00001460       _tokstr                    0044e460     init.o
 0004:00001464       _tokfd                     0044e464     init.o
 0004:00001468       _lexstop                   0044e468     init.o
 0004:0000146c       _hdocs                     0044e46c     init.o
 0004:00001470       _noerrs                    0044e470     init.o
 0004:00001474       _noeval                    0044e474     init.o
 0004:00001478       _curhist                   0044e478     init.o
 0004:0000147c       _expanding                 0044e47c     init.o
 0004:00001480       _excs                      0044e480     init.o
 0004:00001484       _exlast                    0044e484     init.o
 0004:00001488       _isfirstln                 0044e488     init.o
 0004:0000148c       _isfirstch                 0044e48c     init.o
 0004:00001490       _histentct                 0044e490     init.o
 0004:00001494       _histentarr                0044e494     init.o
 0004:00001498       _histsiz                   0044e498     init.o
 0004:0000149c       _histdone                  0044e49c     init.o
 0004:000014a0       _defev                     0044e4a0     init.o
 0004:000014a4       _incmdpos                  0044e4a4     init.o
 0004:000014a8       _incond                    0044e4a8     init.o
 0004:000014ac       _inredir                   0044e4ac     init.o
 0004:000014b0       _incasepat                 0044e4b0     init.o
 0004:000014b4       _infunc                    0044e4b4     init.o
 0004:000014b8       _isnewlin                  0044e4b8     init.o
 0004:000014bc       _histlist                  0044e4bc     init.o
 0004:000014c0       _dirstack                  0044e4c0     init.o
 0004:000014c4       _bufstack                  0044e4c4     init.o
 0004:000014c8       _inbufct                   0044e4c8     init.o
 0004:000014cc       _inbufflags                0044e4cc     init.o
 0004:000014d0       _subsh                     0044e4d0     init.o
 0004:000014d4       _breaks                    0044e4d4     init.o
 0004:000014d8       _retflag                   0044e4d8     init.o
 0004:000014dc       _pathchecked               0044e4dc     init.o
 0004:000014e0       _loops                     0044e4e0     init.o
 0004:000014e4       _contflag                  0044e4e4     init.o
 0004:000014e8       _thisjob                   0044e4e8     init.o
 0004:000014ec       _curjob                    0044e4ec     init.o
 0004:000014f0       _prevjob                   0044e4f0     init.o
 0004:000014f4       _aliastab                  0044e4f4     init.o
 0004:000014f8       _reswdtab                  0044e4f8     init.o
 0004:000014fc       _paramtab                  0044e4fc     init.o
 0004:00001500       _cmdnamtab                 0044e500     init.o
 0004:00001504       _shfunctab                 0044e504     init.o
 0004:00001508       _builtintab                0044e508     init.o
 0004:0000150c       _compctltab                0044e50c     init.o
 0004:00001510       _keybindtab                0044e510     init.o
 0004:00001514       _emkeybindtab              0044e514     init.o
 0004:00001518       _vikeybindtab              0044e518     init.o
 0004:0000151c       _nameddirtab               0044e51c     init.o
 0004:00001520       _cc_compos                 0044e520     init.o
 0004:00001560       _cc_default                0044e560     init.o
 0004:000015a0       _cc_first                  0044e5a0     init.o
 0004:000015e0       _cc_dummy                  0044e5e0     init.o
 0004:00001620       _jobtab                    0044e620     init.o
 0004:00001c60       _shtms                     0044ec60     init.o
 0004:00001c70       _schedcmds                 0044ec70     init.o
 0004:00001c74       _hsubl                     0044ec74     init.o
 0004:00001c78       _hsubr                     0044ec78     init.o
 0004:00001c7c       _cached_uid                0044ec7c     init.o
 0004:00001c80       _cached_username           0044ec80     init.o
 0004:00001c84       _zsh_name                  0044ec84     init.o
 0004:00001c88       _underscore                0044ec88     init.o
 0004:00001c8c       _lastval                   0044ec8c     init.o
 0004:00001c90       _mypid                     0044ec90     init.o
 0004:00001c94       _lastpid                   0044ec94     init.o
 0004:00001c98       _ppid                      0044ec98     init.o
 0004:00001c9c       _ifs                       0044ec9c     init.o
 0004:00001ca0       _pwd                       0044eca0     init.o
 0004:00001ca4       _oldpwd                    0044eca4     init.o
 0004:00001ca8       _columns                   0044eca8     init.o
 0004:00001cac       _lines                     0044ecac     init.o
 0004:00001cb0       _zoptarg                   0044ecb0     init.o
 0004:00001cb4       _zoptind                   0044ecb4     init.o
 0004:00001cb8       _prompt                    0044ecb8     init.o
 0004:00001cbc       _prompt2                   0044ecbc     init.o
 0004:00001cc0       _prompt3                   0044ecc0     init.o
 0004:00001cc4       _prompt4                   0044ecc4     init.o
 0004:00001cc8       _rprompt                   0044ecc8     init.o
 0004:00001ccc       _sprompt                   0044eccc     init.o
 0004:00001cd0       _wordchars                 0044ecd0     init.o
 0004:00001cd4       _rstring                   0044ecd4     init.o
 0004:00001cd8       _Rstring                   0044ecd8     init.o
 0004:00001cdc       _postedit                  0044ecdc     init.o
 0004:00001ce0       _hostnam                   0044ece0     init.o
 0004:00001ce4       _home                      0044ece4     init.o
 0004:00001ce8       _pparams                   0044ece8     init.o
 0004:00001cec       _mypgrp                    0044ecec     init.o
 0004:00001cf0       _argzero                   0044ecf0     init.o
 0004:00001cf4       _hackzero                  0044ecf4     init.o
 0004:00001cf8       _scriptname                0044ecf8     init.o
 0004:00001cfc       _lineno                    0044ecfc     init.o
 0004:00001d00       _shlvl                     0044ed00     init.o
 0004:00001d04       _lastval2                  0044ed04     init.o
 0004:00001d08       _lastmailcheck             0044ed08     init.o
 0004:00001d0c       _lastwatch                 0044ed0c     init.o
 0004:00001d10       _lastperiodic              0044ed10     init.o
 0004:00001d18       _shtimer                   0044ed18     init.o
 0004:00001d20       _nullcmd                   0044ed20     init.o
 0004:00001d24       _readnullcmd               0044ed24     init.o
 0004:00001d28       _locallist                 0044ed28     init.o
 0004:00001d2c       _locallevel                0044ed2c     init.o
 0004:00001d30       _sourcelevel               0044ed30     init.o
 0004:00001d34       _fdtable                   0044ed34     init.o
 0004:00001d38       _fdtable_size              0044ed38     init.o
 0004:00001d3c       _max_zsh_fd                0044ed3c     init.o
 0004:00001d40       _coprocin                  0044ed40     init.o
 0004:00001d44       _coprocout                 0044ed44     init.o
 0004:00001d48       _SHIN                      0044ed48     init.o
 0004:00001d4c       _SHTTY                     0044ed4c     init.o
 0004:00001d50       _shout                     0044ed50     init.o
 0004:00001d54       _bshin                     0044ed54     init.o
 0004:00001d58       _strin                     0044ed58     init.o
 0004:00001d5c       _stophist                  0044ed5c     init.o
 0004:00001d60       _spaceflag                 0044ed60     init.o
 0004:00001d64       _nocorrect                 0044ed64     init.o
 0004:00001d68       _histactive                0044ed68     init.o
 0004:00001d6c       _emulation                 0044ed6c     init.o
 0004:00001d70       _opts                      0044ed70     init.o
 0004:00001de0       _lastbase                  0044ede0     init.o
 0004:00001de4       _hptr                      0044ede4     init.o
 0004:00001de8       _chline                    0044ede8     init.o
 0004:00001dec       _qbang                     0044edec     init.o
 0004:00001df0       _txtattrmask               0044edf0     init.o
 0004:00001df4       _txtchange                 0044edf4     init.o
 0004:00001df8       _term                      0044edf8     init.o
 0004:00001dfc       _termflags                 0044edfc     init.o
 0004:00001e00       _badcshglob                0044ee00     init.o
 0004:00001e04       _hlinesz                   0044ee04     init.o
 0004:00001e08       _stopmsg                   0044ee08     init.o
 0004:00001e0c       _shttyinfo                 0044ee0c     init.o
 0004:00001e10       _ttystrname                0044ee10     init.o
 0004:00001e14       _ttyfrozen                 0044ee14     init.o
 0004:00001e18       _useheap                   0044ee18     init.o
 0004:00001e1c       _clwsize                   0044ee1c     init.o
 0004:00001e20       _clwnum                    0044ee20     init.o
 0004:00001e24       _clwpos                    0044ee24     init.o
 0004:00001e28       _clwords                   0044ee28     init.o
 0004:00001e2c       _cmdoutpid                 0044ee2c     init.o
 0004:00001e30       _cmdoutval                 0044ee30     init.o
 0004:00001e34       _exstack                   0044ee34     init.o
 0004:00001e38       _sigtrapped                0044ee38     init.o
 0004:00001e9c       _sigfuncs                  0044ee9c     init.o
 0004:00001f00       _queueing_enabled          0044ef00     init.o
 0004:00001f04       _signal_mask_queue         0044ef04     init.o
 0004:00001f44       _signal_queue              0044ef44     init.o
 0004:00001f84       _queue_front               0044ef84     init.o
 0004:00001f88       _queue_rear                0044ef88     init.o
 0004:00001f8c       _noaliases                 0044ef8c     init.o
 0004:00001f90       _ztokens                   0044ef90     init.o
 0004:00001f94       _bangchar                  0044ef94     init.o
 0004:00001f95       _hatchar                   0044ef95     init.o
 0004:00001f96       _hashchar                  0044ef96     init.o
 0004:00001f98       _eofseen                   0044ef98     init.o
 0004:00001f9c       _zleparse                  0044ef9c     init.o
 0004:00001fa0       _wordbeg                   0044efa0     init.o
 0004:00001fa4       _parbegin                  0044efa4     init.o
 0004:00001fa8       _parend                    0044efa8     init.o
 0004:00001fb0       _dummy_list                0044efb0     init.o
 0004:00001fc0       _tclen                     0044efc0     init.o
 0004:00002020       _tcstr                     0044f020     init.o
 0004:00002080       _tclines                   0044f080     init.o
 0004:00002084       _tccolumns                 0044f084     init.o
 0004:00002088       _tccapnams                 0044f088     init.o
 0004:000020e8       _cmdstack                  0044f0e8     init.o
 0004:000020ec       _cmdsp                     0044f0ec     init.o
 0004:000020f0       _tokstrings                0044f0f0     init.o
 0004:000021e4       _cmdnames                  0044f1e4     init.o
 0004:00002260       _optns                     0044f260     init.o
 0004:000025d8       _typtab                    0044f5d8     init.o
 0004:000027d8       _reswds                    0044f7d8     init.o
 0004:00002968       _special_params            0044f968     init.o
 0004:00003778       _builtins                  00450778     init.o
 0004:000043ec       ??_C@_01IJJ@c?$AA@         004513ec     init.o
 0004:000043f0       ??_C@_03ENJK@amp?$AA@      004513f0     init.o
 0004:000043f4       ??_C@_05FJEK@which?$AA@    004513f4     init.o
 0004:000043fc       ??_C@_02BJLP@ca?$AA@       004513fc     init.o
 0004:00004400       ??_C@_02LGAN@pm?$AA@       00451400     init.o
 0004:00004404       ??_C@_05KJNF@where?$AA@    00451404     init.o
 0004:0000440c       ??_C@_06EMJH@acmpvf?$AA@   0045140c     init.o
 0004:00004414       ??_C@_04OMDE@wait?$AA@     00451414     init.o
 0004:0000441c       ??_C@_05DIFC@vared?$AA@    0045141c     init.o
 0004:00004424       ??_C@_08CDPA@unsetopt?$AA@ 00451424     init.o
 0004:00004430       ??_C@_02KLFL@fm?$AA@       00451430     init.o
 0004:00004434       ??_C@_02GLEK@hs?$AA@       00451434     init.o
 0004:00004438       ??_C@_07BOEO@unlimit?$AA@  00451438     init.o
 0004:00004440       ??_C@_04PPOL@adfm?$AA@     00451440     init.o
 0004:00004448       ??_C@_06EFCD@unhash?$AA@   00451448     init.o
 0004:00004450       ??_C@_0L@JJCN@unfunction?$AA@ 00451450     init.o
 0004:0000445c       ??_C@_01KDFD@m?$AA@        0045145c     init.o
 0004:00004460       ??_C@_07CHCF@unalias?$AA@  00451460     init.o
 0004:00004468       ??_C@_01PDAJ@S?$AA@        00451468     init.o
 0004:0000446c       ??_C@_05KMLP@umask?$AA@    0045146c     init.o
 0004:00004474       ??_C@_06FNOI@ulimit?$AA@   00451474     init.o
 0004:0000447c       ??_C@_0N@NKNM@LRUZfilrtuxm?$AA@ 0045147c     init.o
 0004:0000448c       ??_C@_07MNN@typeset?$AA@   0045148c     init.o
 0004:00004494       ??_C@_04ILBP@ampf?$AA@     00451494     init.o
 0004:0000449c       ??_C@_04PIKN@type?$AA@     0045149c     init.o
 0004:000044a4       ??_C@_04NCCD@true?$AA@     004514a4     init.o
 0004:000044ac       ??_C@_04ELJL@trap?$AA@     004514ac     init.o
 0004:000044b4       ??_C@_05LHJG@title?$AA@    004514b4     init.o
 0004:000044bc       ??_C@_05KBKD@times?$AA@    004514bc     init.o
 0004:000044c4       ??_C@_02FGJD@fu?$AA@       004514c4     init.o
 0004:000044c8       ??_C@_06IMOB@ttyctl?$AA@   004514c8     init.o
 0004:000044d0       ??_C@_04DJDA@test?$AA@     004514d0     init.o
 0004:000044d8       ??_C@_01IFC@f?$AA@         004514d8     init.o
 0004:000044dc       ??_C@_07NBCG@suspend?$AA@  004514dc     init.o
 0004:000044e4       ??_C@_05IIAE@start?$AA@    004514e4     init.o
 0004:000044ec       ??_C@_06LOOG@source?$AA@   004514ec     init.o
 0004:000044f4       ??_C@_08DHEI@shutdown?$AA@ 004514f4     init.o
 0004:00004500       ??_C@_05MCEL@shift?$AA@    00451500     init.o
 0004:00004508       ??_C@_06CDPG@setopt?$AA@   00451508     init.o
 0004:00004510       ??_C@_03NHNF@set?$AA@      00451510     init.o
 0004:00004514       ??_C@_06CGBH@return?$AA@   00451514     init.o
 0004:0000451c       ??_C@_02CNAP@df?$AA@       0045151c     init.o
 0004:00004520       ??_C@_06EMAG@rehash?$AA@   00451520     init.o
 0004:00004528       ??_C@_0L@LGCG@LRUZfiltux?$AA@ 00451528     init.o
 0004:00004534       ??_C@_08JODI@readonly?$AA@ 00451534     init.o
 0004:00004540       ??_C@_0BH@GHGF@rzu0123456789pkqecnAlE?$AA@ 00451540     init.o
 0004:00004558       ??_C@_04IFA@read?$AA@      00451558     init.o
 0004:00004560       ??_C@_03IKHC@nrl?$AA@      00451560     init.o
 0004:00004564       ??_C@_03MPGC@pwd?$AA@      00451564     init.o
 0004:00004568       ??_C@_03CKLG@?9nz?$AA@     00451568     init.o
 0004:0000456c       ??_C@_06PGCN@pushln?$AA@   0045156c     init.o
 0004:00004574       ??_C@_05JDKG@pushd?$AA@    00451574     init.o
 0004:0000457c       ??_C@_02LELH@ps?$AA@       0045157c     init.o
 0004:00004580       ??_C@_0BM@IIFL@RDPnrslzNu0123456789pioOcm?9?$AA@ 00451580     init.o
 0004:0000459c       ??_C@_05KCGF@print?$AA@    0045159c     init.o
 0004:000045a4       ??_C@_04KGP@popd?$AA@      004515a4     init.o
 0004:000045ac       ??_C@_06LCC@logout?$AA@    004515ac     init.o
 0004:000045b4       ??_C@_03BGKD@log?$AA@      004515b4     init.o
 0004:000045b8       ??_C@_09ECHJ@LRUZilrtu?$AA@ 004515b8     init.o
 0004:000045c4       ??_C@_05PDHF@local?$AA@    004515c4     init.o
 0004:000045cc       ??_C@_05BIMH@limit?$AA@    004515cc     init.o
 0004:000045d4       ??_C@_03NIGL@let?$AA@      004515d4     init.o
 0004:000045d8       ??_C@_05COBN@lpZrs?$AA@    004515d8     init.o
 0004:000045e0       ??_C@_04IEBD@jobs?$AA@     004515e0     init.o
 0004:000045e8       ??_C@_01JAP@i?$AA@         004515e8     init.o
 0004:000045ec       ??_C@_05JAPK@lrtux?$AA@    004515ec     init.o
 0004:000045f4       ??_C@_07KBFM@integer?$AA@  004515f4     init.o
 0004:000045fc       ??_C@_01JME@l?$AA@         004515fc     init.o
 0004:00004600       ??_C@_08POJC@nrdDfEim?$AA@ 00451600     init.o
 0004:0000460c       ??_C@_07EHGI@history?$AA@  0045160c     init.o
 0004:00004614       ??_C@_04MNFK@dfmr?$AA@     00451614     init.o
 0004:0000461c       ??_C@_07IMG@getopts?$AA@   0045161c     init.o
 0004:00004624       ??_C@_02IGCB@zr?$AA@       00451624     init.o
 0004:00004628       ??_C@_06BLLJ@ecnAlE?$AA@   00451628     init.o
 0004:00004630       ??_C@_05EBHF@getln?$AA@    00451630     init.o
 0004:00004638       ??_C@_03FMOJ@mtu?$AA@      00451638     init.o
 0004:0000463c       ??_C@_09LPHA@functions?$AA@ 0045163c     init.o
 0004:00004648       ??_C@_0P@BOMK@nlreIRWAdDfEim?$AA@ 00451648     init.o
 0004:00004658       ??_C@_05NAGO@false?$AA@    00451658     init.o
 0004:00004660       ??_C@_01KOI@x?$AA@         00451660     init.o
 0004:00004664       ??_C@_0L@BIII@LRUZfilrtu?$AA@ 00451664     init.o
 0004:00004670       ??_C@_06JPOG@export?$AA@   00451670     init.o
 0004:00004678       ??_C@_04BAHI@exit?$AA@     00451678     init.o
 0004:00004680       ??_C@_04CECG@eval?$AA@     00451680     init.o
 0004:00004688       ??_C@_06MAD@enable?$AA@    00451688     init.o
 0004:00004690       ??_C@_01FJJO@R?$AA@        00451690     init.o
 0004:00004694       ??_C@_07BCEB@emulate?$AA@  00451694     init.o
 0004:0000469c       ??_C@_06IICN@echotc?$AA@   0045169c     init.o
 0004:000046a4       ??_C@_03CNEB@neE?$AA@      004516a4     init.o
 0004:000046a8       ??_C@_04EDEH@echo?$AA@     004516a8     init.o
 0004:000046b0       ??_C@_04HNEA@afmr?$AA@     004516b0     init.o
 0004:000046b8       ??_C@_07BJMH@disable?$AA@  004516b8     init.o
 0004:000046c0       ??_C@_01KBCC@v?$AA@        004516c0     init.o
 0004:000046c4       ??_C@_04PHLB@dirs?$AA@     004516c4     init.o
 0004:000046cc       ??_C@_0M@IPPA@LRUZfilrtux?$AA@ 004516cc     init.o
 0004:000046d8       ??_C@_07CEKA@declare?$AA@  004516d8     init.o
 0004:000046e0       ??_C@_08HLGC@continue?$AA@ 004516e0     init.o
 0004:000046ec       ??_C@_03KE@cls?$AA@        004516ec     init.o
 0004:000046f0       ??_C@_05GBJE@chdir?$AA@    004516f0     init.o
 0004:000046f8       ??_C@_03CCBJ@bye?$AA@      004516f8     init.o
 0004:000046fc       ??_C@_05EELJ@break?$AA@    004516fc     init.o
 0004:00004704       ??_C@_08KAIJ@asvemdrN?$AA@ 00451704     init.o
 0004:00004710       ??_C@_07FLKG@bindkey?$AA@  00451710     init.o
 0004:00004718       ??_C@_01FOJL@u?$AA@        00451718     init.o
 0004:0000471c       ??_C@_01PEAM@t?$AA@        0045171c     init.o
 0004:00004720       ??_C@_08GMCI@autoload?$AA@ 00451720     init.o
 0004:0000472c       ??_C@_04BPJO@Lgmr?$AA@     0045172c     init.o
 0004:00004734       ??_C@_05CBKM@alias?$AA@    00451734     init.o
 0004:0000473c       ??_C@_01KHLB@?$FL?$AA@     0045173c     init.o
 0004:00004740       ??_C@_06HCPD@noglob?$AA@   00451740     init.o
 0004:00004748       ??_C@_07KAGO@command?$AA@  00451748     init.o
 0004:00004750       ??_C@_07KMJK@builtin?$AA@  00451750     init.o
 0004:00004758       ??_C@_04CGCN@argv?$AA@     00451758     init.o
 0004:00004760       ??_C@_07MAPH@manpath?$AA@  00451760     init.o
 0004:00004768       ??_C@_07MNMI@MANPATH?$AA@  00451768     init.o
 0004:00004770       ??_C@_07JMFI@PROMPT4?$AA@  00451770     init.o
 0004:00004778       ??_C@_07MJLN@PROMPT3?$AA@  00451778     init.o
 0004:00004780       ??_C@_07GDCK@PROMPT2?$AA@  00451780     init.o
 0004:00004788       ??_C@_06JEFI@PROMPT?$AA@   00451788     init.o
 0004:00004790       ??_C@_06ELND@prompt?$AA@   00451790     init.o
 0004:00004798       ??_C@_06DKLM@status?$AA@   00451798     init.o
 0004:000047a0       ??_C@_09IHHA@HISTCHARS?$AA@ 004517a0     init.o
 0004:000047ac       ??_C@_04OALD@ARGC?$AA@     004517ac     init.o
 0004:000047b4       ??_C@_01KFMA@?$EA?$AA@     004517b4     init.o
 0004:000047b8       ??_C@_05KDPK@psvar?$AA@    004517b8     init.o
 0004:000047c0       ??_C@_05MIHF@PSVAR?$AA@    004517c0     init.o
 0004:000047c8       ??_C@_04NCOD@path?$AA@     004517c8     init.o
 0004:000047d0       ??_C@_04LNMG@PATH?$AA@     004517d0     init.o
 0004:000047d8       ??_C@_05PNBL@watch?$AA@    004517d8     init.o
 0004:000047e0       ??_C@_05JGJE@WATCH?$AA@    004517e0     init.o
 0004:000047e8       ??_C@_08MENA@mailpath?$AA@ 004517e8     init.o
 0004:000047f4       ??_C@_08MMDN@MAILPATH?$AA@ 004517f4     init.o
 0004:00004800       ??_C@_05BPMC@fpath?$AA@    00451800     init.o
 0004:00004808       ??_C@_05HEEN@FPATH?$AA@    00451808     init.o
 0004:00004810       ??_C@_07DEPJ@fignore?$AA@  00451810     init.o
 0004:00004818       ??_C@_07DJMG@FIGNORE?$AA@  00451818     init.o
 0004:00004820       ??_C@_06DNGF@cdpath?$AA@   00451820     init.o
 0004:00004828       ??_C@_06OCOO@CDPATH?$AA@   00451828     init.o
 0004:00004830       ??_C@_01PLJA@0?$AA@        00451830     init.o
 0004:00004834       ??_C@_07KLNE@SPROMPT?$AA@  00451834     init.o
 0004:0000483c       ??_C@_04EFDE@RPS1?$AA@     0045183c     init.o
 0004:00004844       ??_C@_03OPP@PS4?$AA@       00451844     init.o
 0004:00004848       ??_C@_03FLBK@PS3?$AA@      00451848     init.o
 0004:0000484c       ??_C@_03PBIN@PS2?$AA@      0045184c     init.o
 0004:00004850       ??_C@_03ODE@PS1?$AA@       00451850     init.o
 0004:00004854       ??_C@_07IFEB@RPROMPT?$AA@  00451854     init.o
 0004:0000485c       ??_C@_0M@GOMP@READNULLCMD?$AA@ 0045185c     init.o
 0004:00004868       ??_C@_08BAMG@POSTEDIT?$AA@ 00451868     init.o
 0004:00004874       ??_C@_07ILNJ@NULLCMD?$AA@  00451874     init.o
 0004:0000487c       ??_C@_06HIEF@OPTARG?$AA@   0045187c     init.o
 0004:00004884       ??_C@_06JCBO@OPTIND?$AA@   00451884     init.o
 0004:0000488c       ??_C@_05DPGI@LINES?$AA@    0045188c     init.o
 0004:00004894       ??_C@_07FGLP@COLUMNS?$AA@  00451894     init.o
 0004:0000489c       ??_C@_04KDKD@PPID?$AA@     0045189c     init.o
 0004:000048a4       ??_C@_06MJFP@LINENO?$AA@   004518a4     init.o
 0004:000048ac       ??_C@_01PILM@$?$AA@        004518ac     init.o
 0004:000048b0       ??_C@_07PCLE@LC_TIME?$AA@  004518b0     init.o
 0004:000048b8       ??_C@_08LFGE@LC_CTYPE?$AA@ 004518b8     init.o
 0004:000048c4       ??_C@_0L@CFLC@LC_COLLATE?$AA@ 004518c4     init.o
 0004:000048d0       ??_C@_06GCPK@LC_ALL?$AA@   004518d0     init.o
 0004:000048d8       ??_C@_04KEMK@LANG?$AA@     004518d8     init.o
 0004:000048e0       ??_C@_01NON@_?$AA@         004518e0     init.o
 0004:000048e4       ??_C@_03GJFK@IFS?$AA@      004518e4     init.o
 0004:000048e8       ??_C@_09DKDL@WORDCHARS?$AA@ 004518e8     init.o
 0004:000048f4       ??_C@_04CDJB@HOME?$AA@     004518f4     init.o
 0004:000048fc       ??_C@_09MGJI@histchars?$AA@ 004518fc     init.o
 0004:00004908       ??_C@_08LOIJ@USERNAME?$AA@ 00451908     init.o
 0004:00004914       ??_C@_07EOAG@TTYIDLE?$AA@  00451914     init.o
 0004:0000491c       ??_C@_04FMNE@EUID?$AA@     0045191c     init.o
 0004:00004924       ??_C@_03LIEL@UID?$AA@      00451924     init.o
 0004:00004928       ??_C@_07DFL@SECONDS?$AA@   00451928     init.o
 0004:00004930       ??_C@_06FDCE@RANDOM?$AA@   00451930     init.o
 0004:00004938       ??_C@_08GGKD@HISTSIZE?$AA@ 00451938     init.o
 0004:00004944       ??_C@_04NJJD@EGID?$AA@     00451944     init.o
 0004:0000494c       ??_C@_03DNAM@GID?$AA@      0045194c     init.o
 0004:00004950       ??_C@_05KOJK@ERRNO?$AA@    00451950     init.o
 0004:00004958       ??_C@_01KNFJ@?$CD?$AA@     00451958     init.o
 0004:0000495c       ??_C@_04EKDK@time?$AA@     0045195c     init.o
 0004:00004964       ??_C@_09KNKP@nocorrect?$AA@ 00451964     init.o
 0004:00004970       ??_C@_02BAH@fi?$AA@        00451970     init.o
 0004:00004974       ??_C@_04DPDH@esac?$AA@     00451974     init.o
 0004:0000497c       ??_C@_03DNBD@end?$AA@      0045197c     init.o
 0004:00004980       ??_C@_06EEHC@coproc?$AA@   00451980     init.o
 0004:00004988       ??_C@_01KCD@?$HN?$AA@      00451988     init.o
 0004:0000498c       ??_C@_01PFFB@?$HL?$AA@     0045198c     init.o
 0004:00004990       ??_C@_02OJBG@?$FL?$FL?$AA@ 00451990     init.o
 0004:00004994       ??_C@_03LFGP@zle?$AA@      00451994     init.o
 0004:00004998       ??_C@_06GDPI@xtrace?$AA@   00451998     init.o
 0004:000049a0       ??_C@_0BE@GKFG@winntwaitforguiapps?$AA@ 004519a0     init.o
 0004:000049b4       ??_C@_0BE@NDKC@winntnoquoteprotect?$AA@ 004519b4     init.o
 0004:000049c8       ??_C@_0BE@OMPL@winntnoassociations?$AA@ 004519c8     init.o
 0004:000049dc       ??_C@_0BB@GNDG@winntlamepathfix?$AA@ 004519dc     init.o
 0004:000049f0       ??_C@_0BA@MJD@winntignorecase?$AA@ 004519f0     init.o
 0004:00004a00       ??_C@_0BG@GFCP@winntconvertbackslash?$AA@ 00451a00     init.o
 0004:00004a18       ??_C@_07KNLF@verbose?$AA@  00451a18     init.o
 0004:00004a20       ??_C@_05PDHF@unset?$AA@    00451a20     init.o
 0004:00004a28       ??_C@_0BA@NAGL@sunkeyboardhack?$AA@ 00451a28     init.o
 0004:00004a38       ??_C@_0O@OEJP@singlelinezle?$AA@ 00451a38     init.o
 0004:00004a48       ??_C@_0O@COMD@singlecommand?$AA@ 00451a48     init.o
 0004:00004a58       ??_C@_0M@COIE@shwordsplit?$AA@ 00451a58     init.o
 0004:00004a64       ??_C@_0L@PGKK@shortloops?$AA@ 00451a64     init.o
 0004:00004a70       ??_C@_0BA@PMCN@shoptionletters?$AA@ 00451a70     init.o
 0004:00004a80       ??_C@_09JND@shinstdin?$AA@ 00451a80     init.o
 0004:00004a8c       ??_C@_06CGCK@shglob?$AA@   00451a8c     init.o
 0004:00004a94       ??_C@_0BA@JNME@shfileexpansion?$AA@ 00451a94     init.o
 0004:00004aa4       ??_C@_0N@HCMK@rmstarsilent?$AA@ 00451aa4     init.o
 0004:00004ab4       ??_C@_08BEGE@recexact?$AA@ 00451ab4     init.o
 0004:00004ac0       ??_C@_03KHNJ@rcs?$AA@      00451ac0     init.o
 0004:00004ac4       ??_C@_08DGKN@rcquotes?$AA@ 00451ac4     init.o
 0004:00004ad0       ??_C@_0O@5rcexpandparam?$AA@ 00451ad0     init.o
 0004:00004ae0       ??_C@_0M@NFAI@pushdtohome?$AA@ 00451ae0     init.o
 0004:00004aec       ??_C@_0M@GEHP@pushdsilent?$AA@ 00451aec     init.o
 0004:00004af8       ??_C@_0L@IDGB@pushdminus?$AA@ 00451af8     init.o
 0004:00004b04       ??_C@_0BA@HELB@pushdignoredups?$AA@ 00451b04     init.o
 0004:00004b14       ??_C@_0M@BDGB@promptsubst?$AA@ 00451b14     init.o
 0004:00004b20       ??_C@_08LAOE@promptcr?$AA@ 00451b20     init.o
 0004:00004b2c       ??_C@_0L@MAJA@privileged?$AA@ 00451b2c     init.o
 0004:00004b38       ??_C@_0P@ILGN@printexitvalue?$AA@ 00451b38     init.o
 0004:00004b48       ??_C@_0O@EIMA@printeightbit?$AA@ 00451b48     init.o
 0004:00004b58       ??_C@_0O@GDMN@posixbuiltins?$AA@ 00451b58     init.o
 0004:00004b68       ??_C@_08PODN@pathdirs?$AA@ 00451b68     init.o
 0004:00004b74       ??_C@_0L@FLAM@overstrike?$AA@ 00451b74     init.o
 0004:00004b80       ??_C@_0BA@DJKC@numericglobsort?$AA@ 00451b80     init.o
 0004:00004b90       ??_C@_08EMHN@nullglob?$AA@ 00451b90     init.o
 0004:00004b9c       ??_C@_06PDOH@notify?$AA@   00451b9c     init.o
 0004:00004ba4       ??_C@_07MDEO@nomatch?$AA@  00451ba4     init.o
 0004:00004bac       ??_C@_07GPLB@multios?$AA@  00451bac     init.o
 0004:00004bb4       ??_C@_07DNBH@monitor?$AA@  00451bb4     init.o
 0004:00004bbc       ??_C@_0N@CHNH@menucomplete?$AA@ 00451bbc     init.o
 0004:00004bcc       ??_C@_08MIJL@markdirs?$AA@ 00451bcc     init.o
 0004:00004bd8       ??_C@_0M@EFLN@mailwarning?$AA@ 00451bd8     init.o
 0004:00004be4       ??_C@_0BA@FNE@magicequalsubst?$AA@ 00451be4     init.o
 0004:00004bf4       ??_C@_0N@JPPI@longlistjobs?$AA@ 00451bf4     init.o
 0004:00004c04       ??_C@_05FLFF@login?$AA@    00451c04     init.o
 0004:00004c0c       ??_C@_0N@FAE@localoptions?$AA@ 00451c0c     init.o
 0004:00004c1c       ??_C@_09KFOE@listtypes?$AA@ 00451c1c     init.o
 0004:00004c28       ??_C@_08PBHL@listbeep?$AA@ 00451c28     init.o
 0004:00004c34       ??_C@_0O@EEKP@listambiguous?$AA@ 00451c34     init.o
 0004:00004c44       ??_C@_0P@JFJA@kshoptionprint?$AA@ 00451c44     init.o
 0004:00004c54       ??_C@_09LNCF@ksharrays?$AA@ 00451c54     init.o
 0004:00004c60       ??_C@_0BE@HODD@interactivecomments?$AA@ 00451c60     init.o
 0004:00004c74       ??_C@_0M@EDFL@interactive?$AA@ 00451c74     init.o
 0004:00004c80       ??_C@_09PPHC@ignoreeof?$AA@ 00451c80     init.o
 0004:00004c8c       ??_C@_0N@ENKH@ignorebraces?$AA@ 00451c8c     init.o
 0004:00004c9c       ??_C@_03FAME@hup?$AA@      00451c9c     init.o
 0004:00004ca0       ??_C@_0L@JHJL@histverify?$AA@ 00451ca0     init.o
 0004:00004cac       ??_C@_0M@MAEM@histnostore?$AA@ 00451cac     init.o
 0004:00004cb8       ??_C@_0BA@MOJP@histignorespace?$AA@ 00451cb8     init.o
 0004:00004cc8       ??_C@_0P@BEHG@histignoredups?$AA@ 00451cc8     init.o
 0004:00004cd8       ??_C@_08NBMB@histbeep?$AA@ 00451cd8     init.o
 0004:00004ce4       ??_C@_0BB@OGB@histallowclobber?$AA@ 00451ce4     init.o
 0004:00004cf8       ??_C@_0M@FHHN@hashlistall?$AA@ 00451cf8     init.o
 0004:00004d04       ??_C@_08NFMA@hashdirs?$AA@ 00451d04     init.o
 0004:00004d10       ??_C@_08HKHC@hashcmds?$AA@ 00451d10     init.o
 0004:00004d1c       ??_C@_09ILFM@globsubst?$AA@ 00451d1c     init.o
 0004:00004d28       ??_C@_08PHHI@globdots?$AA@ 00451d28     init.o
 0004:00004d34       ??_C@_0N@MJBP@globcomplete?$AA@ 00451d34     init.o
 0004:00004d44       ??_C@_0L@NPCL@globassign?$AA@ 00451d44     init.o
 0004:00004d50       ??_C@_04BCBB@glob?$AA@     00451d50     init.o
 0004:00004d58       ??_C@_0BA@BDKE@functionargzero?$AA@ 00451d58     init.o
 0004:00004d68       ??_C@_0M@LJKJ@flowcontrol?$AA@ 00451d68     init.o
 0004:00004d74       ??_C@_0BA@ICIP@extendedhistory?$AA@ 00451d74     init.o
 0004:00004d84       ??_C@_0N@HKJB@extendedglob?$AA@ 00451d84     init.o
 0004:00004d94       ??_C@_04DBD@exec?$AA@      00451d94     init.o
 0004:00004d9c       ??_C@_07BBMJ@errexit?$AA@  00451d9c     init.o
 0004:00004da4       ??_C@_06PNG@equals?$AA@    00451da4     init.o
 0004:00004dac       ??_C@_0M@CMBD@cshnullglob?$AA@ 00451dac     init.o
 0004:00004db8       ??_C@_0BA@MHBP@cshjunkiequotes?$AA@ 00451db8     init.o
 0004:00004dc8       ??_C@_0P@OMCD@cshjunkieloops?$AA@ 00451dc8     init.o
 0004:00004dd8       ??_C@_0BB@COIB@cshjunkiehistory?$AA@ 00451dd8     init.o
 0004:00004dec       ??_C@_0L@BPC@correctall?$AA@ 00451dec     init.o
 0004:00004df8       ??_C@_07FOJK@correct?$AA@  00451df8     init.o
 0004:00004e00       ??_C@_0P@HOIA@completeinword?$AA@ 00451e00     init.o
 0004:00004e10       ??_C@_0BA@JJBK@completealiases?$AA@ 00451e10     init.o
 0004:00004e20       ??_C@_07KAHI@clobber?$AA@  00451e20     init.o
 0004:00004e28       ??_C@_0L@HDNC@chaselinks?$AA@ 00451e28     init.o
 0004:00004e34       ??_C@_0L@FEFO@cdablevars?$AA@ 00451e34     init.o
 0004:00004e40       ??_C@_07NMDE@bsdecho?$AA@  00451e40     init.o
 0004:00004e48       ??_C@_08MLOO@braceccl?$AA@ 00451e48     init.o
 0004:00004e54       ??_C@_06CHMN@bgnice?$AA@   00451e54     init.o
 0004:00004e5c       ??_C@_04EPH@beep?$AA@      00451e5c     init.o
 0004:00004e64       ??_C@_08KNIN@banghist?$AA@ 00451e64     init.o
 0004:00004e70       ??_C@_0L@PPLN@badpattern?$AA@ 00451e70     init.o
 0004:00004e7c       ??_C@_0L@BMEA@autoresume?$AA@ 00451e7c     init.o
 0004:00004e88       ??_C@_0BA@NKBM@autoremoveslash?$AA@ 00451e88     init.o
 0004:00004e98       ??_C@_09NDFG@autopushd?$AA@ 00451e98     init.o
 0004:00004ea4       ??_C@_0P@PLFJ@autoparamslash?$AA@ 00451ea4     init.o
 0004:00004eb4       ??_C@_0O@KDJH@autoparamkeys?$AA@ 00451eb4     init.o
 0004:00004ec4       ??_C@_0N@DDGD@autonamedirs?$AA@ 00451ec4     init.o
 0004:00004ed4       ??_C@_08KKAE@automenu?$AA@ 00451ed4     init.o
 0004:00004ee0       ??_C@_08GOND@autolist?$AA@ 00451ee0     init.o
 0004:00004eec       ??_C@_06KIMH@autocd?$AA@   00451eec     init.o
 0004:00004ef4       ??_C@_0O@PBEO@appendhistory?$AA@ 00451ef4     init.o
 0004:00004f04       ??_C@_0M@MHPP@alwaystoend?$AA@ 00451f04     init.o
 0004:00004f10       ??_C@_0BB@MCDH@alwayslastprompt?$AA@ 00451f10     init.o
 0004:00004f24       ??_C@_09FADO@allexport?$AA@ 00451f24     init.o
 0004:00004f30       ??_C@_0L@GNFN@braceparam?$AA@ 00451f30     init.o
 0004:00004f3c       ??_C@_05IKHM@brace?$AA@    00451f3c     init.o
 0004:00004f44       ??_C@_08LHEN@heredocd?$AA@ 00451f44     init.o
 0004:00004f50       ??_C@_07DBCK@heredoc?$AA@  00451f50     init.o
 0004:00004f58       ??_C@_09NALP@elif?9then?$AA@ 00451f58     init.o
 0004:00004f64       ??_C@_09FMGF@mathsubst?$AA@ 00451f64     init.o
 0004:00004f70       ??_C@_08IGPM@cmdsubst?$AA@ 00451f70     init.o
 0004:00004f7c       ??_C@_06BCIL@bquote?$AA@   00451f7c     init.o
 0004:00004f84       ??_C@_06GPEL@dquote?$AA@   00451f84     init.o
 0004:00004f8c       ??_C@_05OFMG@quote?$AA@    00451f8c     init.o
 0004:00004f94       ??_C@_05MHID@array?$AA@    00451f94     init.o
 0004:00004f9c       ??_C@_05DJGM@cursh?$AA@    00451f9c     init.o
 0004:00004fa4       ??_C@_05BKFD@subsh?$AA@    00451fa4     init.o
 0004:00004fac       ??_C@_08JJOG@function?$AA@ 00451fac     init.o
 0004:00004fb8       ??_C@_04NNBC@case?$AA@     00451fb8     init.o
 0004:00004fc0       ??_C@_07HKAI@foreach?$AA@  00451fc0     init.o
 0004:00004fc8       ??_C@_07ENDO@errpipe?$AA@  00451fc8     init.o
 0004:00004fd0       ??_C@_04EMIP@pipe?$AA@     00451fd0     init.o
 0004:00004fd8       ??_C@_06FAEP@cmdand?$AA@   00451fd8     init.o
 0004:00004fe0       ??_C@_05KGHB@cmdor?$AA@    00451fe0     init.o
 0004:00004fe8       ??_C@_04JILK@cond?$AA@     00451fe8     init.o
 0004:00004ff0       ??_C@_04BNEI@math?$AA@     00451ff0     init.o
 0004:00004ff8       ??_C@_04IFBG@elif?$AA@     00451ff8     init.o
 0004:00005000       ??_C@_04IIAH@else?$AA@     00452000     init.o
 0004:00005008       ??_C@_04GHJ@then?$AA@      00452008     init.o
 0004:00005010       ??_C@_02NEFL@if?$AA@       00452010     init.o
 0004:00005014       ??_C@_05FPCC@until?$AA@    00452014     init.o
 0004:0000501c       ??_C@_06DJIJ@select?$AA@   0045201c     init.o
 0004:00005024       ??_C@_06GLIF@repeat?$AA@   00452024     init.o
 0004:0000502c       ??_C@_05NJDI@while?$AA@    0045202c     init.o
 0004:00005034       ??_C@_03ILIA@for?$AA@      00452034     init.o
 0004:00005038       ??_C@_02CBJ@?$CG?$HM?$AA@  00452038     init.o
 0004:0000503c       ??_C@_02NKGD@?$CJ?$CJ?$AA@ 0045203c     init.o
 0004:00005040       ??_C@_02GGFO@?$CI?$CI?$AA@ 00452040     init.o
 0004:00005044       ??_C@_02MMMJ@?$CI?$CJ?$AA@ 00452044     init.o
 0004:00005048       ??_C@_02FHDC@?$HM?$CG?$AA@ 00452048     init.o
 0004:0000504c       ??_C@_01KALE@?$HM?$AA@     0045204c     init.o
 0004:00005050       ??_C@_03OOCB@?$DM?$DM?$DM?$AA@ 00452050     init.o
 0004:00005054       ??_C@_04BHHL@?$DO?$DO?$CG?$HM?$AA@ 00452054     init.o
 0004:0000505c       ??_C@_03MPLP@?$DO?$DO?$CG?$AA@ 0045205c     init.o
 0004:00005060       ??_C@_03HDEG@?$CG?$DO?$HM?$AA@ 00452060     init.o
 0004:00005064       ??_C@_02PCPH@?$CG?$DO?$AA@ 00452064     init.o
 0004:00005068       ??_C@_02NAMC@?$DO?$CG?$AA@ 00452068     init.o
 0004:0000506c       ??_C@_02PNJH@?$DM?$CG?$AA@ 0045206c     init.o
 0004:00005070       ??_C@_03ONMG@?$DM?$DM?9?$AA@ 00452070     init.o
 0004:00005074       ??_C@_02FFHB@?$DM?$DM?$AA@ 00452074     init.o
 0004:00005078       ??_C@_02FP@?$DM?$DO?$AA@   00452078     init.o
 0004:0000507c       ??_C@_01FHE@?$DM?$AA@      0045207c     init.o
 0004:00005080       ??_C@_03MCJJ@?$DO?$DO?$HM?$AA@ 00452080     init.o
 0004:00005084       ??_C@_02CNAK@?$DO?$DO?$AA@ 00452084     init.o
 0004:00005088       ??_C@_02NNOE@?$DO?$HM?$AA@ 00452088     init.o
 0004:0000508c       ??_C@_02PDP@?$CG?$CG?$AA@  0045208c     init.o
 0004:00005090       ??_C@_02FKBE@?$HM?$HM?$AA@ 00452090     init.o
 0004:00005094       ??_C@_01KNJC@?$CG?$AA@     00452094     init.o
 0004:00005098       ??_C@_02GBMB@?$DL?$DL?$AA@ 00452098     init.o
 0004:0000509c       ??_C@_02HDBI@?2n?$AA@      0045209c     init.o
 0004:000050a0       ??_C@_01FAJB@?$DL?$AA@     004520a0     init.o
 0004:000050a4       ??_C@_02KOLF@ue?$AA@       004520a4     init.o
 0004:000050a8       ??_C@_02NJEK@se?$AA@       004520a8     init.o
 0004:000050ac       ??_C@_02HBEI@me?$AA@       004520ac     init.o
 0004:000050b0       ??_C@_02PILH@us?$AA@       004520b0     init.o
 0004:000050b4       ??_C@_02NINM@so?$AA@       004520b4     init.o
 0004:000050b8       ??_C@_02NLNP@md?$AA@       004520b8     init.o
 0004:000050bc       ??_C@_02BCED@ta?$AA@       004520bc     init.o
 0004:000050c0       ??_C@_02CMJJ@dl?$AA@       004520c0     init.o
 0004:000050c4       ??_C@_02GAJJ@al?$AA@       004520c4     init.o
 0004:000050c8       ??_C@_02LDOD@ce?$AA@       004520c8     init.o
 0004:000050cc       ??_C@_02FDCC@IC?$AA@       004520cc     init.o
 0004:000050d0       ??_C@_02NEJA@ic?$AA@       004520d0     init.o
 0004:000050d4       ??_C@_02KKHG@DC?$AA@       004520d4     init.o
 0004:000050d8       ??_C@_02CNME@dc?$AA@       004520d8     init.o
 0004:000050dc       ??_C@_02FEJC@DO?$AA@       004520dc     init.o
 0004:000050e0       ??_C@_02NDCA@do?$AA@       004520e0     init.o
 0004:000050e4       ??_C@_02IALM@UP?$AA@       004520e4     init.o
 0004:000050e8       ??_C@_02HAO@up?$AA@        004520e8     init.o
 0004:000050ec       ??_C@_02LGLG@RI?$AA@       004520ec     init.o
 0004:000050f0       ??_C@_02OACA@nd?$AA@       004520f0     init.o
 0004:000050f4       ??_C@_02OAFA@LE?$AA@       004520f4     init.o
 0004:000050f8       ??_C@_02GHOC@le?$AA@       004520f8     init.o
 0004:000050fc       ??_C@_02ENMM@cl?$AA@       004520fc     init.o
 0004:00005100       ??_C@_0BI@CMM@?$CD$?$FO?$CK?$CI?$CJ$?$DN?$HM?$HL?$HN?$FL?$FN?$GA?$DM?$DO?$DP?$HO?$GA?0?8?$CC?2?$AA@ 00452100     init.o
 0004:00005118       ??_C@_05DAPA@DEBUG?$AA@    00452118     init.o
 0004:00005120       ??_C@_04EKLB@ZERR?$AA@     00452120     init.o
 0004:00005128       ??_C@_04BLOF@ABRT?$AA@     00452128     init.o
 0004:00005130       ??_C@_02MDKJ@21?$AA@       00452130     init.o
 0004:00005134       ??_C@_04HPCH@TTIN?$AA@     00452134     init.o
 0004:0000513c       ??_C@_04KKJ@TTOU?$AA@      0045213c     init.o
 0004:00005144       ??_C@_04FAAB@TSTP?$AA@     00452144     init.o
 0004:0000514c       ??_C@_02HCE@17?$AA@        0045214c     init.o
 0004:00005150       ??_C@_04FOOP@CONT?$AA@     00452150     init.o
 0004:00005158       ??_C@_04GEKL@CHLD?$AA@     00452158     init.o
 0004:00005160       ??_C@_04CDKK@PIPE?$AA@     00452160     init.o
 0004:00005168       ??_C@_04PANM@STOP?$AA@     00452168     init.o
 0004:00005170       ??_C@_04MJIG@SEGV?$AA@     00452170     init.o
 0004:00005178       ??_C@_05KJPG@WINCH?$AA@    00452178     init.o
 0004:00005180       ??_C@_04DAHI@ALRM?$AA@     00452180     init.o
 0004:00005188       ??_C@_03MNK@FPE?$AA@       00452188     init.o
 0004:0000518c       ??_C@_03FJHG@ILL?$AA@      0045218c     init.o
 0004:00005190       ??_C@_04EIJF@KILL?$AA@     00452190     init.o
 0004:00005198       ??_C@_04BHOA@TERM?$AA@     00452198     init.o
 0004:000051a0       ??_C@_01PLFL@5?$AA@        004521a0     init.o
 0004:000051a4       ??_C@_01FBMM@4?$AA@        004521a4     init.o
 0004:000051a8       ??_C@_03JFKD@HUP?$AA@      004521a8     init.o
 0004:000051ac       ??_C@_05CPDG@BREAK?$AA@    004521ac     init.o
 0004:000051b4       ??_C@_03IJOL@INT?$AA@      004521b4     init.o
 0004:000051b8       ??_C@_04HPFN@EXIT?$AA@     004521b8     init.o
 0004:000051c0       ??_C@_05DMBE@abort?$AA@    004521c0     init.o
 0004:000051c8       ??_C@_0BG@PJGM@suspended?5?$CItty?5input?$CJ?$AA@ 004521c8     init.o
 0004:000051e0       ??_C@_0BH@IKGJ@suspended?5?$CItty?5output?$CJ?$AA@ 004521e0     init.o
 0004:000051f8       ??_C@_09PBDC@suspended?$AA@ 004521f8     init.o
 0004:00005204       ??_C@_09CLAH@continued?$AA@ 00452204     init.o
 0004:00005210       ??_C@_0P@PKDB@death?5of?5child?$AA@ 00452210     init.o
 0004:00005220       ??_C@_0M@HKFN@broken?5pipe?$AA@ 00452220     init.o
 0004:0000522c       ??_C@_0BD@LDBJ@suspended?5?$CIsignal?$CJ?$AA@ 0045222c     init.o
 0004:00005240       ??_C@_0BD@LMLK@segmentation?5fault?$AA@ 00452240     init.o
 0004:00005254       ??_C@_0BE@KLJE@window?5size?5changed?$AA@ 00452254     init.o
 0004:00005268       ??_C@_05OCPF@alarm?$AA@    00452268     init.o
 0004:00005270       ??_C@_0BJ@GGCG@floating?5point?5exception?$AA@ 00452270     init.o
 0004:0000528c       ??_C@_0BN@NKPE@illegal?5hardware?5instruction?$AA@ 0045228c     init.o
 0004:000052ac       ??_C@_06FDBJ@killed?$AA@   004522ac     init.o
 0004:000052b4       ??_C@_0L@GDBH@terminated?$AA@ 004522b4     init.o
 0004:000052c0       ??_C@_06KJHM@hangup?$AA@   004522c0     init.o
 0004:000052c8       ??_C@_08BDA@SIGBREAK?$AA@  004522c8     init.o
 0004:000052d4       ??_C@_09HMLG@interrupt?$AA@ 004522d4     init.o
 0004:000052e0       ??_C@_04MIJD@done?$AA@     004522e0     init.o
 0004:000052e8       ??_C@_03FPLE@zsh?$AA@      004522e8     init.o
 0004:000052ec       ??_C@_0BI@CCFM@use?5?8logout?8?5to?5logout?4?$AA@ 004522ec     init.o
 0004:00005304       ??_C@_0BE@LJMO@use?5?8exit?8?5to?5exit?4?$AA@ 00452304     init.o
 0004:00005318       ??_C@_0M@PKKE@write?5error?$AA@ 00452318     init.o
 0004:00005324       ??_C@_03CMMI@ksh?$AA@      00452324     init.o
 0004:00005328       ??_C@_03LMHN@csh?$AA@      00452328     init.o
 0004:0000532c       ??_C@_0BK@LJAI@can?8t?5open?5input?5file?3?5?$CFs?$AA@ 0045232c     init.o
 0004:00005348       ??_C@_0BJ@OGFH@string?5expected?5after?5?9c?$AA@ 00452348     init.o
 0004:00005364       ??_C@_07GLCC@CONOUT$?$AA@  00452364     init.o
 0004:0000536c       ??_C@_06MICP@CONIN$?$AA@   0045236c     init.o
 0004:00005374       ??_C@_01POOE@?$AM?$AA@     00452374     init.o
 0004:00005378       ??_C@_01FELI@?$AI?$AA@     00452378     init.o
 0004:0000537c       ??_C@_02LCHF@co?$AA@       0045237c     init.o
 0004:00005380       ??_C@_02JJAG@li?$AA@       00452380     init.o
 0004:00005384       ??_C@_02MKAO@am?$AA@       00452384     init.o
 0004:00005388       ??_C@_0BP@MLFA@can?8t?5find?5termcap?5info?5for?5?$CFs?$AA@ 00452388     init.o
 0004:000053a8       ??_C@_04ECAG@more?$AA@     004523a8     init.o
 0004:000053b0       ??_C@_03KMBF@cat?$AA@      004523b0     init.o
 0004:000053b4       ??_C@_0BI@LCGL@?$CK?$DP_?9?4?$FL?$FN?$HO?$DN?1?$CG?$DL?$CB?$CD$?$CF?$FO?$CI?$CJ?$HL?$HN?$DM?$DO?$AA@ 004523b4     init.o
 0004:000053cc       ??_C@_05DKE@?5?7?6?$ID?5?$AA@ 004523cc     init.o
 0004:000053d4       ??_C@_0CD@BJNB@zsh?3?5correct?5?8?$CFR?8?5to?5?8?$CFr?8?5?$FLnyae?$FN@ 004523d4     init.o
 0004:000053f8       ??_C@_02JBJ@?$CL?5?$AA@    004523f8     init.o
 0004:000053fc       ??_C@_03PBCG@?$DP?$CD?5?$AA@ 004523fc     init.o
 0004:00005400       ??_C@_04LPPM@?$CF_?$DO?5?$AA@ 00452400     init.o
 0004:00005408       ??_C@_05KEID@?$CFm?$CF?$CD?5?$AA@ 00452408     init.o
 0004:00005410       ??_C@_0BC@IHCM@?1etc?1suid_profile?$AA@ 00452410     init.o
 0004:00005424       ??_C@_08OILD@?4profile?$AA@ 00452424     init.o
 0004:00005430       ??_C@_03ECK@ENV?$AA@       00452430     init.o
 0004:00005434       ??_C@_0N@JHJF@?1etc?1profile?$AA@ 00452434     init.o
 0004:00005444       ??_C@_07BKHP@?4zlogin?$AA@ 00452444     init.o
 0004:0000544c       ??_C@_0M@DMHL@?1etc?1zlogin?$AA@ 0045244c     init.o
 0004:00005458       ??_C@_06IJEG@?4zshrc?$AA@  00452458     init.o
 0004:00005460       ??_C@_0L@INNC@?1etc?1zshrc?$AA@ 00452460     init.o
 0004:0000546c       ??_C@_09JHLB@?4zprofile?$AA@ 0045246c     init.o
 0004:00005478       ??_C@_0O@DAMO@?1etc?1zprofile?$AA@ 00452478     init.o
 0004:00005488       ??_C@_07LLPE@?4zshenv?$AA@ 00452488     init.o
 0004:00005490       ??_C@_0M@JNPA@?1etc?1zshenv?$AA@ 00452490     init.o
 0004:0000549c       ??_C@_0BC@GGML@path?5too?5long?3?5?$CFs?$AA@ 0045249c     init.o
 0004:000054b0       ??_C@_07DKGA@ZDOTDIR?$AA@  004524b0     init.o
 0004:000054bc       ??_C@_0BB@OMCN@read?5error?5on?5?$CFs?$AA@ 004524bc     input.o
 0004:000054d0       ??_C@_0O@ECEK@can?8t?5open?5?$CFs?$AA@ 004524d0     input.o
 0004:000054e4       ??_C@_0L@LLIC@?$CIpwd?5now?3?5?$AA@ 004524e4     jobs.o
 0004:000054f0       ??_C@_05KJP@?$CFs?5?$HM?5?$AA@ 004524f0     jobs.o
 0004:000054f8       ??_C@_07GCBD@done?$CF?$CKs?$AA@ 004524f8     jobs.o
 0004:00005500       ??_C@_0N@NMNJ@exit?5?$CF?94d?$CF?$CKs?$AA@ 00452500     jobs.o
 0004:00005510       ??_C@_0N@LGBA@continued?$CF?$CKs?$AA@ 00452510     jobs.o
 0004:00005520       ??_C@_0L@FMIK@running?$CF?$CKs?$AA@ 00452520     jobs.o
 0004:0000552c       ??_C@_03LECD@?$CF?$CKs?$AA@ 0045252c     jobs.o
 0004:00005530       ??_C@_04HCHF@?$CFld?5?$AA@ 00452530     jobs.o
 0004:00005538       ??_C@_05KIAL@zsh?3?5?$AA@  00452538     jobs.o
 0004:00005540       ??_C@_07NDP@?5?5?5?5?5?5?5?$AA@ 00452540     jobs.o
 0004:00005548       ??_C@_08ION@?5?5?5?5?5?5?5?5?$AA@ 00452548     jobs.o
 0004:00005554       ??_C@_0L@HOAP@?$FL?$CFld?$FN?5?5?$CFc?5?$AA@ 00452554     jobs.o
 0004:00005560       ??_C@_0CL@HCIE@job?5table?5full?5or?5recursion?5limi@ 00452560     jobs.o
 0004:0000558c       ??_C@_04DPKO@?5?$CFld?$AA@ 0045258c     jobs.o
 0004:00005594       ??_C@_04GBMF@?$FL?$CFd?$FN?$AA@ 00452594     jobs.o
 0004:0000559c       ??_C@_0L@GMPA@REPORTTIME?$AA@ 0045259c     jobs.o
 0004:000055a8       ??_C@_04KIBJ@?$CF?43f?$AA@ 004525a8     jobs.o
 0004:000055b0       ??_C@_09CEIB@?$CFd?3?$CF05?42f?$AA@ 004525b0     jobs.o
 0004:000055bc       ??_C@_0P@JFOP@?$CFd?3?$CF02d?3?$CF05?42f?$AA@ 004525bc     jobs.o
 0004:000055cc       ??_C@_04FOAE@?$CFd?$CF?$CF?$AA@ 004525cc     jobs.o
 0004:000055d4       ??_C@_04NDAK@?$CF?$CF?$CFc?$AA@ 004525d4     jobs.o
 0004:000055dc       ??_C@_03JCLN@?$CF?$CF?$CK?$AA@ 004525dc     jobs.o
 0004:000055e0       ??_C@_06MAAD@?$CF4?42fs?$AA@ 004525e0     jobs.o
 0004:000055e8       ??_C@_0CH@OPD@?$CFJ?5?5?$CFU?5user?5?$CFS?5system?5?$CFP?5cpu?5?$CF?$CKE@ 004525e8     jobs.o
 0004:00005610       ??_C@_07PGFN@TIMEFMT?$AA@  00452610     jobs.o
 0004:00005618       ??_C@_0BH@BHPM@you?5have?5running?5jobs?4?$AA@ 00452618     jobs.o
 0004:00005630       ??_C@_0BJ@JIJO@you?5have?5suspended?5jobs?4?$AA@ 00452630     jobs.o
 0004:0000564c       _len                       0045264c     lex.o
 0004:00005650       _bsiz                      00452650     lex.o
 0004:00005654       _bptr                      00452654     lex.o
 0004:0000565c       _lexact1                   0045265c     lex.o
 0004:0000575c       _lexact2                   0045275c     lex.o
 0004:0000585c       _lextok2                   0045285c     lex.o
 0004:00005964       ??_C@_0BD@MMCA@?$DL?$CJ?$HM$?$FL?$FN?$HO?$CI?$HL?$HN?$DO?$DM?$DN?2?8?$CC?$GA?0?$AA@ 00452964     lex.o
 0004:00005978       ??_C@_0BA@CPIK@?2q?6?$DL?$CB?$CG?$HM?$CI?$CJ?$HL?$HN?$FL?$FN?$DM?$DO?$AA@ 00452978     lex.o
 0004:00005988       ??_C@_0BH@FLMI@closing?5brace?5expected?$AA@ 00452988     lex.o
 0004:000059a0       ??_C@_0M@KBBN@unmatched?5?$GA?$AA@ 004529a0     lex.o
 0004:000059ac       ??_C@_0M@FBPD@unmatched?5?$CC?$AA@ 004529ac     lex.o
 0004:000059b8       ??_C@_0M@FBDI@unmatched?5?8?$AA@ 004529b8     lex.o
 0004:000059c4       ??_C@_0BG@PDJE@parse?5error?5near?5?$GA?$CFc?8?$AA@ 004529c4     lex.o
 0004:000059dc       ??_C@_02GBJL@?$FN?$FN?$AA@ 004529dc     lex.o
 0004:000059e0       ??_C@_0BI@MEF@bad?5argument?5for?5repeat?$AA@ 004529e0     loop.o
 0004:00005ba0       _sp                        00452ba0     math.o
 0004:00005ba4       ??_C@_0CK@LPIE@too?5many?5identifiers?5?$CIcomplain?5t@ 00452ba4     math.o
 0004:00005bd0       ??_C@_0BA@PEDD@lvalue?5required?$AA@ 00452bd0     math.o
 0004:00005be0       ??_C@_0BB@KBFL@division?5by?5zero?$AA@ 00452be0     math.o
 0004:00005bf4       ??_C@_0BA@KDE@out?5of?5integers?$AA@ 00452bf4     math.o
 0004:00005c04       ??_C@_0CA@PPFC@can?8t?5handle?5negative?5exponents?$AA@ 00452c04     math.o
 0004:00005c24       ??_C@_0CG@DOEJ@bad?5math?5expression?3?5unbalanced?5@ 00452c24     math.o
 0004:00005c4c       ??_C@_0CB@HIO@bad?5math?5expression?3?5stack?5empty@ 00452c4c     math.o
 0004:00005c70       ??_C@_0P@BGDC@stack?5overflow?$AA@ 00452c70     math.o
 0004:00005c80       ??_C@_0CL@EANG@bad?5math?5expression?3?5illegal?5cha@ 00452c80     math.o
 0004:00005cac       ??_C@_0N@DLLC@?8?$CJ?8?5expected?$AA@ 00452cac     math.o
 0004:00005cbc       _alloc                     00452cbc     mem.o
 0004:00005cc0       _ncalloc                   00452cc0     mem.o
 0004:00005cc4       ??_C@_0BL@CHGC@fatal?5error?3?5out?5of?5memory?$AA@ 00452cc4     mem.o
 0004:00005d10       ??_C@_07MLKC@signals?$AA@  00452d10     params.o
 0004:00005d18       ??_C@_0M@LEPO@ZSH_VERSION?$AA@ 00452d18     params.o
 0004:00005d24       ??_C@_0BF@CKDI@3?40?45?9nt?9sniff?94?41p2?$AA@ 00452d24     params.o
 0004:00005d3c       ??_C@_08EIIP@ZSH_NAME?$AA@ 00452d3c     params.o
 0004:00005d48       ??_C@_06CNBM@VENDOR?$AA@   00452d48     params.o
 0004:00005d50       ??_C@_02BNMH@pc?$AA@       00452d50     params.o
 0004:00005d54       ??_C@_03IEKD@TTY?$AA@      00452d54     params.o
 0004:00005d58       ??_C@_06FBIO@OSTYPE?$AA@   00452d58     params.o
 0004:00005d60       ??_C@_0L@OMEL@Windows_NT?$AA@ 00452d60     params.o
 0004:00005d6c       ??_C@_08OAKH@MACHTYPE?$AA@ 00452d6c     params.o
 0004:00005d78       ??_C@_04HAIA@i686?$AA@     00452d78     params.o
 0004:00005d80       ??_C@_07KPOK@LOGNAME?$AA@  00452d80     params.o
 0004:00005d88       ??_C@_04IIHE@HOST?$AA@     00452d88     params.o
 0004:00005d90       ??_C@_08JFBN@WATCHFMT?$AA@ 00452d90     params.o
 0004:00005d9c       ??_C@_0BG@JPMJ@?$CFn?5has?5?$CFa?5?$CFl?5from?5?$CFm?4?$AA@ 00452d9c     params.o
 0004:00005db4       ??_C@_09HEIP@TMPPREFIX?$AA@ 00452db4     params.o
 0004:00005dc0       ??_C@_07IPKA@C?3?1TEMP?$AA@ 00452dc0     params.o
 0004:00005dc8       ??_C@_03CFIF@?$CFs?1?$AA@  00452dc8     params.o
 0004:00005dcc       ??_C@_04FEEL@TEMP?$AA@     00452dcc     params.o
 0004:00005dd4       ??_C@_07KPON@LISTMAX?$AA@  00452dd4     params.o
 0004:00005ddc       ??_C@_0L@CMLA@KEYTIMEOUT?$AA@ 00452ddc     params.o
 0004:00005de8       ??_C@_08GFHM@LOGCHECK?$AA@ 00452de8     params.o
 0004:00005df4       ??_C@_09PDCC@MAILCHECK?$AA@ 00452df4     params.o
 0004:00005e00       ??_C@_0BC@MGMK@invalid?5subscript?$AA@ 00452e00     params.o
 0004:00005e14       ??_C@_0BE@GHGN@subscript?5to?5?$CFs?3?5?$CFd?$AA@ 00452e14     params.o
 0004:00005e28       ??_C@_03BNJO@big?$AA@      00452e28     params.o
 0004:00005e2c       ??_C@_05IHCN@small?$AA@    00452e2c     params.o
 0004:00005e34       ??_C@_0BH@BGAI@read?9only?5variable?3?5?$CFs?$AA@ 00452e34     params.o
 0004:00005e4c       ??_C@_03JFOM@?$CFld?$AA@   00452e4c     params.o
 0004:00005e50       ??_C@_0CL@CJJA@attempt?5to?5assign?5array?5value?5to@ 00452e50     params.o
 0004:00005e7c       ??_C@_03NAJN@?$CFd?$CD?$AA@ 00452e7c     params.o
 0004:00005e80       _condlex                   00452e80     parse.o
 0004:00005eac       ??_C@_02OJEJ@ge?$AA@       00452eac     parse.o
 0004:00005eb0       ??_C@_02OKKO@gt?$AA@       00452eb0     parse.o
 0004:00005eb4       ??_C@_02GEAF@lt?$AA@       00452eb4     parse.o
 0004:00005eb8       ??_C@_02MHDA@eq?$AA@       00452eb8     parse.o
 0004:00005ebc       ??_C@_02DLKF@ef?$AA@       00452ebc     parse.o
 0004:00005ec0       ??_C@_02FPPK@ot?$AA@       00452ec0     parse.o
 0004:00005ec4       ??_C@_02EJFA@nt?$AA@       00452ec4     parse.o
 0004:00005ec8       ??_C@_01FBAH@1?$AA@        00452ec8     parse.o
 0004:00005ecc       ??_C@_02IAOD@in?$AA@       00452ecc     parse.o
 0004:00005ed0       ??_C@_02NIAK@?9t?$AA@      00452ed0     parse.o
 0004:00005ed4       ??_C@_0BJ@KAMJ@abcdefghknoprstuwxzLONGS?$AA@ 00452ed4     parse.o
 0004:00005ef0       ??_C@_02GMBL@?$CB?$DN?$AA@ 00452ef0     parse.o
 0004:00005ef4       ??_C@_02OJEM@?$DN?$DN?$AA@ 00452ef4     parse.o
 0004:00005ef8       ??_C@_01KPOD@?$DN?$AA@     00452ef8     parse.o
 0004:00005efc       ??_C@_02HAOM@?9n?$AA@      00452efc     parse.o
 0004:00005f00       ??_C@_0CE@KOOI@parse?5error?3?5condition?5expected?3@ 00452f00     parse.o
 0004:00005f24       ??_C@_0BH@HMCK@condition?5expected?3?5?$CFs?$AA@ 00452f24     parse.o
 0004:00005f3c       ??_C@_0BL@DENP@unrecognized?5condition?3?5?$CFs?$AA@ 00452f3c     parse.o
 0004:00005f58       ??_C@_0BG@CHJF@parse?5error?5near?5?$GA?$CFl?8?$AA@ 00452f58     parse.o
 0004:00005f70       ??_C@_0BJ@PMBA@parse?5error?5near?5?$GA?$CFl?4?4?4?8?$AA@ 00452f70     parse.o
 0004:00005f8c       ??_C@_07OGDM@timeout?$AA@  00452f8c     signals.o
 0004:00005f94       ??_C@_05MEAF@TMOUT?$AA@    00452f94     signals.o
 0004:00005f9c       ??_C@_0BA@NIPH@wait?5failed?3?5?$CFe?$AA@ 00452f9c     signals.o
 0004:00005fac       ??_C@_0BK@HIHD@warning?3?5?$CFd?5jobs?5SIGHUPed?$AA@ 00452fac     signals.o
 0004:00005fc8       ??_C@_0CH@HNGP@can?8t?5trap?5SIG?$CFs?5in?5interactive?5@ 00452fc8     signals.o
 0004:00006000       ??_C@_0BI@DENL@closing?5bracket?5missing?$AA@ 00453000     subst.o
 0004:00006018       ??_C@_0CE@IKNM@parse?5error?5in?5command?5substitut@ 00453018     subst.o
 0004:0000603c       ??_C@_08DPFH@no?5match?$AA@ 0045303c     subst.o
 0004:00006048       ??_C@_0N@GGGM@?$CFs?5not?5found?$AA@ 00453048     subst.o
 0004:00006058       ??_C@_0CE@ICEG@no?5such?5user?5or?5named?5directory?3@ 00453058     subst.o
 0004:0000607c       ??_C@_0BG@EEMJ@unrecognized?5modifier?$AA@ 0045307c     subst.o
 0004:00006094       ??_C@_0BL@NDMH@unrecognized?5modifier?5?$GA?$CFc?8?$AA@ 00453094     subst.o
 0004:000060b0       ??_C@_0BG@DEHM@?$CFs?3?5parameter?5not?5set?$AA@ 004530b0     subst.o
 0004:000060c8       ??_C@_02HFBK@?3?5?$AA@     004530c8     subst.o
 0004:000060cc       ??_C@_0BC@HAK@parameter?5not?5set?$AA@ 004530cc     subst.o
 0004:000060e0       ??_C@_0CI@OILD@parse?5error?5in?5$?$HL?4?4?4?$CFc?4?4?4?$HN?5subst@ 004530e0     subst.o
 0004:00006108       ??_C@_0BB@COFJ@bad?5substitution?$AA@ 00453108     subst.o
 0004:0000611c       ??_C@_0P@FPLB@error?5in?5flags?$AA@ 0045311c     subst.o
 0004:0000612c       ??_C@_0CE@LCAB@not?5enough?5directory?5stack?5entri@ 0045312c     subst.o
 0004:000061cc       ??_C@_04LHDH@?$CG?$DO?$DO?$HM?$AA@ 004531cc     text.o
 0004:000061d4       ??_C@_03IDKI@?$CG?$DO?$DO?$AA@ 004531d4     text.o
 0004:000061d8       ??_C@_03CBGF@?9ge?$AA@     004531d8     text.o
 0004:000061dc       ??_C@_03KPMO@?9le?$AA@     004531dc     text.o
 0004:000061e0       ??_C@_03CCIC@?9gt?$AA@     004531e0     text.o
 0004:000061e4       ??_C@_03KMCJ@?9lt?$AA@     004531e4     text.o
 0004:000061e8       ??_C@_03ICJL@?9ne?$AA@     004531e8     text.o
 0004:000061ec       ??_C@_03PBM@?9eq?$AA@      004531ec     text.o
 0004:000061f0       ??_C@_03PDIJ@?9ef?$AA@     004531f0     text.o
 0004:000061f4       ??_C@_03JHNG@?9ot?$AA@     004531f4     text.o
 0004:000061f8       ??_C@_03IBHM@?9nt?$AA@     004531f8     text.o
 0004:000061fc       ??_C@_01FAFK@?$DO?$AA@     004531fc     text.o
 0004:00006200       ??_C@_02GDLA@?$DL?5?$AA@   00453200     text.o
 0004:00006204       ??_C@_06ONDJ@while?5?$AA@  00453204     text.o
 0004:0000620c       ??_C@_06HALP@until?5?$AA@  0045320c     text.o
 0004:00006214       ??_C@_05DDGF@elif?5?$AA@   00453214     text.o
 0004:0000621c       ??_C@_03FPDE@if?5?$AA@     0045321c     text.o
 0004:00006220       ??_C@_03CDBE@?5?$DL?$DL?$AA@ 00453220     text.o
 0004:00006224       ??_C@_03MCDG@?5in?$AA@     00453224     text.o
 0004:00006228       ??_C@_05EHDN@case?5?$AA@   00453228     text.o
 0004:00006230       ??_C@_07BFIL@repeat?5?$AA@ 00453230     text.o
 0004:00006238       ??_C@_03CDEO@?5?$FN?$FN?$AA@ 00453238     text.o
 0004:0000623c       ??_C@_03NOAJ@?$FL?$FL?5?$AA@ 0045323c     text.o
 0004:00006240       ??_C@_04EACC@?5in?5?$AA@   00453240     text.o
 0004:00006248       ??_C@_07BMNJ@select?5?$AA@ 00453248     text.o
 0004:00006250       ??_C@_04KCGL@for?5?$AA@    00453250     text.o
 0004:00006258       ??_C@_02NPHB@?5?$HN?$AA@   00453258     text.o
 0004:0000625c       ??_C@_02MJBF@?$HL?5?$AA@   0045325c     text.o
 0004:00006260       ??_C@_05CEAN@?5?$CI?$CJ?5?$HL?$AA@ 00453260     text.o
 0004:00006268       ??_C@_05FCKK@time?5?$AA@   00453268     text.o
 0004:00006270       ??_C@_02HJJN@?5?$CJ?$AA@   00453270     text.o
 0004:00006274       ??_C@_03OKJF@?5?$HM?5?$AA@ 00453274     text.o
 0004:00006278       ??_C@_04PEKN@?5?$CG?$CG?5?$AA@ 00453278     text.o
 0004:00006280       ??_C@_04DMPI@?5?$HM?$HM?5?$AA@ 00453280     text.o
 0004:00006288       ??_C@_07IMKE@coproc?5?$AA@ 00453288     text.o
 0004:00006290       ??_C@_02JBBI@?$CB?5?$AA@   00453290     text.o
 0004:00006294       ??_C@_02HIMA@?5?$CG?$AA@   00453294     text.o
 0004:00006334       ??_C@_02PIFG@11?$AA@       00453334     utils.o
 0004:00006338       ??_C@_02FCMB@10?$AA@       00453338     utils.o
 0004:0000633c       ??_C@_02NAON@?59?$AA@      0045333c     utils.o
 0004:00006340       ??_C@_02HKHK@?58?$AA@      00453340     utils.o
 0004:00006344       ??_C@_02HLCH@?57?$AA@      00453344     utils.o
 0004:00006348       ??_C@_02NBLA@?56?$AA@      00453348     utils.o
 0004:0000634c       ??_C@_02COAJ@?55?$AA@      0045334c     utils.o
 0004:00006350       ??_C@_02IEJO@?54?$AA@      00453350     utils.o
 0004:00006354       ??_C@_02NBHL@?53?$AA@      00453354     utils.o
 0004:00006358       ??_C@_02HLOM@?52?$AA@      00453358     utils.o
 0004:0000635c       ??_C@_02IEFF@?51?$AA@      0045335c     utils.o
 0004:00006360       ??_C@_02HOP@12?$AA@        00453360     utils.o
 0004:00006364       ??_C@_07CBLA@?5?$FL?$CFld?$FN?6?$AA@ 00453364     utils.o
 0004:0000636c       ??_C@_0L@KDOK@interrupt?6?$AA@ 0045336c     utils.o
 0004:00006378       ??_C@_04ELMM@MAIL?$AA@     00453378     utils.o
 0004:00006380       ??_C@_08BLGD@periodic?$AA@ 00453380     utils.o
 0004:0000638c       ??_C@_06GNKI@precmd?$AA@   0045338c     utils.o
 0004:00006394       ??_C@_06GGNO@PERIOD?$AA@   00453394     utils.o
 0004:0000639c       ??_C@_0BP@LPPP@The?5mail?5in?5?$CFs?5has?5been?5read?4?6?$AA@ 0045339c     utils.o
 0004:000063bc       ??_C@_0BE@CGBH@You?5have?5new?5mail?4?6?$AA@ 004533bc     utils.o
 0004:000063d0       ??_C@_08OEMB@?$CFs?1?$CFs?$DP?$CFs?$AA@ 004533d0     utils.o
 0004:000063dc       ??_C@_0BN@BHAK@empty?5MAILPATH?5component?3?5?$CFs?$AA@ 004533dc     utils.o
 0004:000063fc       ??_C@_06KHDA@XXXXXX?$AA@   004533fc     utils.o
 0004:00006404       ??_C@_02BNCD@ny?$AA@       00453404     utils.o
 0004:00006408       ??_C@_07EBGC@?5?$FLyn?$FN?$DP?5?$AA@ 00453408     utils.o
 0004:00006410       ??_C@_0CP@IGBE@zsh?3?5sure?5you?5want?5to?5delete?5all@ 00453410     utils.o
 0004:00006440       ??_C@_03BBFP@?$AI?5?$AI?$AA@ 00453440     utils.o
 0004:00006444       ??_C@_05JMFB@nyae?5?$AA@   00453444     utils.o
 0004:0000644c       ??_C@_0BK@DOHG@?$CD$?$FO?$CK?$CI?$CJ?$DN?$HM?$HL?$HN?$FL?$FN?$GA?$DM?$DO?$DP?$HO?$DL?$CG?6?7?5?2?8?$CC?$AA@ 0045344c     utils.o
 0004:00006468       ??_C@_0JL@IFKI@?6?6?6?6?6?6?6?6?6?6?6?6?6?6?71234567890?9?$DN?7?7qwe@ 00453468     utils.o
 0004:00006504       ??_C@_02CIPH@?2?8?$AA@     00453504     utils.o
 0004:00006508       _zlecmds                   00453508     zle_bindings.o
 0004:00006cac       _emacsbind                 00453cac     zle_bindings.o
 0004:000070ac       _viinsbind                 004540ac     zle_bindings.o
 0004:0000712c       _vicmdbind                 0045412c     zle_bindings.o
 0004:0000732c       _ntvirtualbind             0045432c     zle_bindings.o
 0004:000073b4       ??_C@_08BPIB@yank?9pop?$AA@ 004543b4     zle_bindings.o
 0004:000073c0       ??_C@_04NADA@yank?$AA@     004543c0     zle_bindings.o
 0004:000073c8       ??_C@_08NMPL@where?9is?$AA@ 004543c8     zle_bindings.o
 0004:000073d4       ??_C@_0BD@PPJG@vi?9yank?9whole?9line?$AA@ 004543d4     zle_bindings.o
 0004:000073e8       ??_C@_0M@DPMA@vi?9yank?9eol?$AA@ 004543e8     zle_bindings.o
 0004:000073f4       ??_C@_07GIFH@vi?9yank?$AA@ 004543f4     zle_bindings.o
 0004:000073fc       ??_C@_0BG@MBKL@vi?9up?9line?9or?9history?$AA@ 004543fc     zle_bindings.o
 0004:00007414       ??_C@_0M@JLLO@vi?9unindent?$AA@ 00454414     zle_bindings.o
 0004:00007420       ??_C@_0P@ICGB@vi?9undo?9change?$AA@ 00454420     zle_bindings.o
 0004:00007430       ??_C@_0N@OFCL@vi?9swap?9case?$AA@ 00454430     zle_bindings.o
 0004:00007440       ??_C@_0O@CCNG@vi?9substitute?$AA@ 00454440     zle_bindings.o
 0004:00007450       ??_C@_0M@JLLA@vi?9set?9mark?$AA@ 00454450     zle_bindings.o
 0004:0000745c       ??_C@_0O@HNC@vi?9set?9buffer?$AA@ 0045445c     zle_bindings.o
 0004:0000746c       ??_C@_0BF@EECB@vi?9rev?9repeat?9search?$AA@ 0045446c     zle_bindings.o
 0004:00007484       ??_C@_0BD@IMKE@vi?9rev?9repeat?9find?$AA@ 00454484     zle_bindings.o
 0004:00007498       ??_C@_0BB@JNCG@vi?9replace?9chars?$AA@ 00454498     zle_bindings.o
 0004:000074ac       ??_C@_0L@EHPJ@vi?9replace?$AA@ 004544ac     zle_bindings.o
 0004:000074b8       ??_C@_0BB@EDOH@vi?9repeat?9search?$AA@ 004544b8     zle_bindings.o
 0004:000074cc       ??_C@_0P@LILC@vi?9repeat?9find?$AA@ 004544cc     zle_bindings.o
 0004:000074dc       ??_C@_0BB@MPCD@vi?9repeat?9change?$AA@ 004544dc     zle_bindings.o
 0004:000074f0       ??_C@_0BB@GJOE@vi?9quoted?9insert?$AA@ 004544f0     zle_bindings.o
 0004:00007504       ??_C@_0O@IEIJ@vi?9put?9before?$AA@ 00454504     zle_bindings.o
 0004:00007514       ??_C@_0N@PAAJ@vi?9put?9after?$AA@ 00454514     zle_bindings.o
 0004:00007524       ??_C@_0BA@JMKC@vi?9pound?9insert?$AA@ 00454524     zle_bindings.o
 0004:00007534       ??_C@_0BC@ELGO@vi?9oper?9swap?9case?$AA@ 00454534     zle_bindings.o
 0004:00007548       ??_C@_0BD@MNFE@vi?9open?9line?9below?$AA@ 00454548     zle_bindings.o
 0004:0000755c       ??_C@_0BD@BELH@vi?9open?9line?9above?$AA@ 0045455c     zle_bindings.o
 0004:00007570       ??_C@_0BB@IBEO@vi?9match?9bracket?$AA@ 00454570     zle_bindings.o
 0004:00007584       ??_C@_0N@DCBJ@vi?9kill?9line?$AA@ 00454584     zle_bindings.o
 0004:00007594       ??_C@_0M@BCGD@vi?9kill?9eol?$AA@ 00454594     zle_bindings.o
 0004:000075a0       ??_C@_07EPNM@vi?9join?$AA@ 004545a0     zle_bindings.o
 0004:000075a8       ??_C@_0O@NONA@vi?9insert?9bol?$AA@ 004545a8     zle_bindings.o
 0004:000075b8       ??_C@_09LKEI@vi?9insert?$AA@ 004545b8     zle_bindings.o
 0004:000075c4       ??_C@_09JAIA@vi?9indent?$AA@ 004545c4     zle_bindings.o
 0004:000075d0       ??_C@_0BK@EKOC@vi?9history?9search?9forward?$AA@ 004545d0     zle_bindings.o
 0004:000075ec       ??_C@_0BL@GGNO@vi?9history?9search?9backward?$AA@ 004545ec     zle_bindings.o
 0004:00007608       ??_C@_0BC@OEDJ@vi?9goto?9mark?9line?$AA@ 00454608     zle_bindings.o
 0004:0000761c       ??_C@_0N@CBPC@vi?9goto?9mark?$AA@ 0045461c     zle_bindings.o
 0004:0000762c       ??_C@_0P@NKFG@vi?9goto?9column?$AA@ 0045462c     zle_bindings.o
 0004:0000763c       ??_C@_0BE@GOEB@vi?9forward?9word?9end?$AA@ 0045463c     zle_bindings.o
 0004:00007650       ??_C@_0BA@GDOI@vi?9forward?9word?$AA@ 00454650     zle_bindings.o
 0004:00007660       ??_C@_0BA@BKLE@vi?9forward?9char?$AA@ 00454660     zle_bindings.o
 0004:00007670       ??_C@_0BK@FAMH@vi?9forward?9blank?9word?9end?$AA@ 00454670     zle_bindings.o
 0004:0000768c       ??_C@_0BG@EMKF@vi?9forward?9blank?9word?$AA@ 0045468c     zle_bindings.o
 0004:000076a4       ??_C@_0BD@HIDE@vi?9first?9non?9blank?$AA@ 004546a4     zle_bindings.o
 0004:000076b8       ??_C@_0BH@PMKB@vi?9find?9prev?9char?9skip?$AA@ 004546b8     zle_bindings.o
 0004:000076d0       ??_C@_0BC@LLMP@vi?9find?9prev?9char?$AA@ 004546d0     zle_bindings.o
 0004:000076e4       ??_C@_0BH@CEKH@vi?9find?9next?9char?9skip?$AA@ 004546e4     zle_bindings.o
 0004:000076fc       ??_C@_0BC@FIOI@vi?9find?9next?9char?$AA@ 004546fc     zle_bindings.o
 0004:00007710       ??_C@_0BB@NEAN@vi?9fetch?9history?$AA@ 00454710     zle_bindings.o
 0004:00007724       ??_C@_0P@CEPH@vi?9end?9of?9line?$AA@ 00454724     zle_bindings.o
 0004:00007734       ??_C@_0BI@DNKE@vi?9down?9line?9or?9history?$AA@ 00454734     zle_bindings.o
 0004:0000774c       ??_C@_0BO@OHDP@vi?9digit?9or?9beginning?9of?9line?$AA@ 0045474c     zle_bindings.o
 0004:0000776c       ??_C@_0P@ICLJ@vi?9delete?9char?$AA@ 0045476c     zle_bindings.o
 0004:0000777c       ??_C@_09MEDL@vi?9delete?$AA@ 0045477c     zle_bindings.o
 0004:00007788       ??_C@_0M@PNKI@vi?9cmd?9mode?$AA@ 00454788     zle_bindings.o
 0004:00007794       ??_C@_0BF@CIIE@vi?9change?9whole?9line?$AA@ 00454794     zle_bindings.o
 0004:000077ac       ??_C@_0O@KCGC@vi?9change?9eol?$AA@ 004547ac     zle_bindings.o
 0004:000077bc       ??_C@_09KAJD@vi?9change?$AA@ 004547bc     zle_bindings.o
 0004:000077c8       ??_C@_0BD@COAB@vi?9caps?9lock?9panic?$AA@ 004547c8     zle_bindings.o
 0004:000077dc       ??_C@_0BF@JGEC@vi?9beginning?9of?9line?$AA@ 004547dc     zle_bindings.o
 0004:000077f4       ??_C@_0BB@IAPN@vi?9backward?9word?$AA@ 004547f4     zle_bindings.o
 0004:00007808       ??_C@_0BG@JOJG@vi?9backward?9kill?9word?$AA@ 00454808     zle_bindings.o
 0004:00007820       ??_C@_0BI@DKBD@vi?9backward?9delete?9char?$AA@ 00454820     zle_bindings.o
 0004:00007838       ??_C@_0BB@PJKB@vi?9backward?9char?$AA@ 00454838     zle_bindings.o
 0004:0000784c       ??_C@_0BH@OPEN@vi?9backward?9blank?9word?$AA@ 0045484c     zle_bindings.o
 0004:00007864       ??_C@_0M@OKBD@vi?9add?9next?$AA@ 00454864     zle_bindings.o
 0004:00007870       ??_C@_0L@OCCB@vi?9add?9eol?$AA@ 00454870     zle_bindings.o
 0004:0000787c       ??_C@_0BC@IFLD@up?9line?9or?9search?$AA@ 0045487c     zle_bindings.o
 0004:00007890       ??_C@_0BD@FEIG@up?9line?9or?9history?$AA@ 00454890     zle_bindings.o
 0004:000078a4       ??_C@_0L@NAOC@up?9history?$AA@ 004548a4     zle_bindings.o
 0004:000078b0       ??_C@_0N@HOFA@up?9case?9word?$AA@ 004548b0     zle_bindings.o
 0004:000078c0       ??_C@_0BD@IJL@universal?9argument?$AA@ 004548c0     zle_bindings.o
 0004:000078d4       ??_C@_04HDGB@undo?$AA@     004548d4     zle_bindings.o
 0004:000078dc       ??_C@_0O@HFFF@undefined?9key?$AA@ 004548dc     zle_bindings.o
 0004:000078ec       ??_C@_0BA@JJOE@transpose?9words?$AA@ 004548ec     zle_bindings.o
 0004:000078fc       ??_C@_0BA@CLJN@transpose?9chars?$AA@ 004548fc     zle_bindings.o
 0004:0000790c       ??_C@_0L@JLMJ@spell?9word?$AA@ 0045490c     zle_bindings.o
 0004:00007918       ??_C@_0BB@KIFC@set?9mark?9command?$AA@ 00454918     zle_bindings.o
 0004:0000792c       ??_C@_0M@MJEK@send?9string?$AA@ 0045492c     zle_bindings.o
 0004:00007938       ??_C@_0L@NICN@send?9break?$AA@ 00454938     zle_bindings.o
 0004:00007944       ??_C@_0BD@ODCB@self?9insert?9unmeta?$AA@ 00454944     zle_bindings.o
 0004:00007958       ??_C@_0M@GMNC@self?9insert?$AA@ 00454958     zle_bindings.o
 0004:00007964       ??_C@_0BG@KCJN@reverse?9menu?9complete?$AA@ 00454964     zle_bindings.o
 0004:0000797c       ??_C@_09KGEJ@redisplay?$AA@ 0045497c     zle_bindings.o
 0004:00007988       ??_C@_0N@GDFP@quote?9region?$AA@ 00454988     zle_bindings.o
 0004:00007998       ??_C@_0L@OIKK@quote?9line?$AA@ 00454998     zle_bindings.o
 0004:000079a4       ??_C@_0O@PLLD@quoted?9insert?$AA@ 004549a4     zle_bindings.o
 0004:000079b4       ??_C@_0BC@JBLK@push?9line?9or?9edit?$AA@ 004549b4     zle_bindings.o
 0004:000079c8       ??_C@_09KMPG@push?9line?$AA@ 004549c8     zle_bindings.o
 0004:000079d4       ??_C@_0L@KBKP@push?9input?$AA@ 004549d4     zle_bindings.o
 0004:000079e0       ??_C@_06HKNK@prefix?$AA@   004549e0     zle_bindings.o
 0004:000079e8       ??_C@_0N@MLNM@pound?9insert?$AA@ 004549e8     zle_bindings.o
 0004:000079f8       ??_C@_0P@OHL@overwrite?9mode?$AA@ 004549f8     zle_bindings.o
 0004:00007a08       ??_C@_0N@CPHF@neg?9argument?$AA@ 00454a08     zle_bindings.o
 0004:00007a18       ??_C@_0BI@CKKN@menu?9expand?9or?9complete?$AA@ 00454a18     zle_bindings.o
 0004:00007a30       ??_C@_0O@HMKH@menu?9complete?$AA@ 00454a30     zle_bindings.o
 0004:00007a40       ??_C@_0M@EOOL@magic?9space?$AA@ 00454a40     zle_bindings.o
 0004:00007a4c       ??_C@_0M@BNOL@list?9expand?$AA@ 00454a4c     zle_bindings.o
 0004:00007a58       ??_C@_0N@KGMN@list?9choices?$AA@ 00454a58     zle_bindings.o
 0004:00007a68       ??_C@_09OOKF@kill?9word?$AA@ 00454a68     zle_bindings.o
 0004:00007a74       ??_C@_0BA@FIAO@kill?9whole?9line?$AA@ 00454a74     zle_bindings.o
 0004:00007a84       ??_C@_0M@ILFJ@kill?9region?$AA@ 00454a84     zle_bindings.o
 0004:00007a90       ??_C@_09DNFF@kill?9line?$AA@ 00454a90     zle_bindings.o
 0004:00007a9c       ??_C@_0M@BHBN@kill?9buffer?$AA@ 00454a9c     zle_bindings.o
 0004:00007aa8       ??_C@_0BB@NPJJ@insert?9last?9word?$AA@ 00454aa8     zle_bindings.o
 0004:00007abc       ??_C@_0BD@FMKH@infer?9next?9history?$AA@ 00454abc     zle_bindings.o
 0004:00007ad0       ??_C@_0BH@PKAA@history?9search?9forward?$AA@ 00454ad0     zle_bindings.o
 0004:00007ae8       ??_C@_0BI@OGO@history?9search?9backward?$AA@ 00454ae8     zle_bindings.o
 0004:00007b00       ??_C@_0CD@CCPM@history?9incremental?9search?9forwa@ 00454b00     zle_bindings.o
 0004:00007b24       ??_C@_0CE@HJLG@history?9incremental?9search?9backw@ 00454b24     zle_bindings.o
 0004:00007b48       ??_C@_0CB@PFO@history?9beginning?9search?9forward@ 00454b48     zle_bindings.o
 0004:00007b6c       ??_C@_0CC@LKJL@history?9beginning?9search?9backwar@ 00454b6c     zle_bindings.o
 0004:00007b90       ??_C@_0BI@FDDG@gosmacs?9transpose?9chars?$AA@ 00454b90     zle_bindings.o
 0004:00007ba8       ??_C@_08OOGK@get?9line?$AA@ 00454ba8     zle_bindings.o
 0004:00007bb4       ??_C@_0N@DEJG@forward?9word?$AA@ 00454bb4     zle_bindings.o
 0004:00007bc4       ??_C@_0N@ENMK@forward?9char?$AA@ 00454bc4     zle_bindings.o
 0004:00007bd4       ??_C@_0M@BHLF@expand?9word?$AA@ 00454bd4     zle_bindings.o
 0004:00007be0       ??_C@_0BK@DKEL@expand?9or?9complete?9prefix?$AA@ 00454be0     zle_bindings.o
 0004:00007bfc       ??_C@_0BD@KPBC@expand?9or?9complete?$AA@ 00454bfc     zle_bindings.o
 0004:00007c10       ??_C@_0P@DKPJ@expand?9history?$AA@ 00454c10     zle_bindings.o
 0004:00007c20       ??_C@_0BA@KFJF@expand?9cmd?9path?$AA@ 00454c20     zle_bindings.o
 0004:00007c30       ??_C@_0BC@LLIN@execute?9named?9cmd?$AA@ 00454c30     zle_bindings.o
 0004:00007c44       ??_C@_0BH@PINM@execute?9last?9named?9cmd?$AA@ 00454c44     zle_bindings.o
 0004:00007c5c       ??_C@_0BI@FMLH@exchange?9point?9and?9mark?$AA@ 00454c5c     zle_bindings.o
 0004:00007c74       ??_C@_0BB@KFCM@end?9of?9line?9hist?$AA@ 00454c74     zle_bindings.o
 0004:00007c88       ??_C@_0M@FKPA@end?9of?9line?$AA@ 00454c88     zle_bindings.o
 0004:00007c94       ??_C@_0P@PEKK@end?9of?9history?$AA@ 00454c94     zle_bindings.o
 0004:00007ca4       ??_C@_0BJ@HDKF@end?9of?9buffer?9or?9history?$AA@ 00454ca4     zle_bindings.o
 0004:00007cc0       ??_C@_0BD@CHIF@emacs?9forward?9word?$AA@ 00454cc0     zle_bindings.o
 0004:00007cd4       ??_C@_0BE@JHLJ@emacs?9backward?9word?$AA@ 00454cd4     zle_bindings.o
 0004:00007ce8       ??_C@_0BE@BDF@down?9line?9or?9search?$AA@ 00454ce8     zle_bindings.o
 0004:00007cfc       ??_C@_0BF@GGAC@down?9line?9or?9history?$AA@ 00454cfc     zle_bindings.o
 0004:00007d14       ??_C@_0N@DHJE@down?9history?$AA@ 00454d14     zle_bindings.o
 0004:00007d24       ??_C@_0P@PCLN@down?9case?9word?$AA@ 00454d24     zle_bindings.o
 0004:00007d34       ??_C@_0P@IMBO@digit?9argument?$AA@ 00454d34     zle_bindings.o
 0004:00007d44       ??_C@_0BF@KIAO@describe?9key?9briefly?$AA@ 00454d44     zle_bindings.o
 0004:00007d5c       ??_C@_0M@IFOC@delete?9word?$AA@ 00454d5c     zle_bindings.o
 0004:00007d68       ??_C@_0BE@KHDN@delete?9char?9or?9list?$AA@ 00454d68     zle_bindings.o
 0004:00007d7c       ??_C@_0M@PMLO@delete?9char?$AA@ 00454d7c     zle_bindings.o
 0004:00007d88       ??_C@_0BE@BNEM@copy?9region?9as?9kill?$AA@ 00454d88     zle_bindings.o
 0004:00007d9c       ??_C@_0P@HNMI@copy?9prev?9word?$AA@ 00454d9c     zle_bindings.o
 0004:00007dac       ??_C@_0O@FLLO@complete?9word?$AA@ 00454dac     zle_bindings.o
 0004:00007dbc       ??_C@_0N@HENJ@clear?9screen?$AA@ 00454dbc     zle_bindings.o
 0004:00007dcc       ??_C@_0BA@EAIF@capitalize?9word?$AA@ 00454dcc     zle_bindings.o
 0004:00007ddc       ??_C@_0BH@EBGH@beginning?9of?9line?9hist?$AA@ 00454ddc     zle_bindings.o
 0004:00007df4       ??_C@_0BC@LLJI@beginning?9of?9line?$AA@ 00454df4     zle_bindings.o
 0004:00007e08       ??_C@_0BF@BAPN@beginning?9of?9history?$AA@ 00454e08     zle_bindings.o
 0004:00007e20       ??_C@_0BP@ICMK@beginning?9of?9buffer?9or?9history?$AA@ 00454e20     zle_bindings.o
 0004:00007e40       ??_C@_0O@BCKK@backward?9word?$AA@ 00454e40     zle_bindings.o
 0004:00007e50       ??_C@_0BD@LLL@backward?9kill?9word?$AA@ 00454e50     zle_bindings.o
 0004:00007e64       ??_C@_0BD@NIEL@backward?9kill?9line?$AA@ 00454e64     zle_bindings.o
 0004:00007e78       ??_C@_0BF@BIOJ@backward?9delete?9word?$AA@ 00454e78     zle_bindings.o
 0004:00007e90       ??_C@_0BF@GBLF@backward?9delete?9char?$AA@ 00454e90     zle_bindings.o
 0004:00007ea8       ??_C@_0O@GLPG@backward?9char?$AA@ 00454ea8     zle_bindings.o
 0004:00007eb8       ??_C@_0BN@9accept?9line?9and?9down?9history?$AA@ 00454eb8     zle_bindings.o
 0004:00007ed8       ??_C@_0M@BOGC@accept?9line?$AA@ 00454ed8     zle_bindings.o
 0004:00007ee4       ??_C@_0BJ@GEHK@accept?9and?9menu?9complete?$AA@ 00454ee4     zle_bindings.o
 0004:00007f00       ??_C@_0BO@EPF@accept?9and?9infer?9next?9history?$AA@ 00454f00     zle_bindings.o
 0004:00007f20       ??_C@_0BA@KELH@accept?9and?9hold?$AA@ 00454f20     zle_bindings.o
 0004:00007f3c       ??_C@_03HLHL@bck?$AA@      00454f3c     zle_hist.o
 0004:00007f40       ??_C@_03CHP@fwd?$AA@       00454f40     zle_hist.o
 0004:00007f44       ??_C@_0BH@JHDE@failing?5XXX?9i?9search?3?5?$AA@ 00454f44     zle_hist.o
 0004:00007f60       _linesz                    00454f60     zle_main.o
 0004:00007f64       _mark                      00454f64     zle_main.o
 0004:00007f68       _c                         00454f68     zle_main.o
 0004:00007f6c       _bindk                     00454f6c     zle_main.o
 0004:00007f70       _zmult                     00454f70     zle_main.o
 0004:00007f74       _vibufspec                 00454f74     zle_main.o
 0004:00007f78       _vibufappend               00454f78     zle_main.o
 0004:00007f7c       _insmode                   00454f7c     zle_main.o
 0004:00007f80       _in_vared                  00454f80     zle_main.o
 0004:00007f84       _cs                        00454f84     zle_main.o
 0004:00007f88       _ll                        00454f88     zle_main.o
 0004:00007f8c       _lppth                     00454f8c     zle_main.o
 0004:00007f90       _lastnamed                 00454f90     zle_main.o
 0004:00007f94       _done                      00454f94     zle_main.o
 0004:00007f98       _histline                  00454f98     zle_main.o
 0004:00007f9c       _resetneeded               00454f9c     zle_main.o
 0004:00007fa0       _zleactive                 00454fa0     zle_main.o
 0004:00007fa4       _line                      00454fa4     zle_main.o
 0004:00007fa8       _lpmpt                     00454fa8     zle_main.o
 0004:00007fac       _rpmpt                     00454fac     zle_main.o
 0004:00007fb0       _curhistline               00454fb0     zle_main.o
 0004:00007fb4       _statusline                00454fb4     zle_main.o
 0004:00007fb8       _statusll                  00454fb8     zle_main.o
 0004:00007fbc       _addedsuffix               00454fbc     zle_main.o
 0004:00007fc0       _complexpect               00454fc0     zle_main.o
 0004:00007fc4       _stackhist                 00454fc4     zle_main.o
 0004:00007fc8       _stackcs                   00454fc8     zle_main.o
 0004:00007fcc       _menucmp                   00454fcc     zle_main.o
 0004:00007fd0       _undoing                   00454fd0     zle_main.o
 0004:00007fd4       _inzlefunc                 00454fd4     zle_main.o
 0004:00007fd8       _vichgbufsz                00454fd8     zle_main.o
 0004:00007fdc       _vichgbufptr               00454fdc     zle_main.o
 0004:00007fe0       _vichgflag                 00454fe0     zle_main.o
 0004:00007fe4       _vichgbuf                  00454fe4     zle_main.o
 0004:00007fe8       _viinsbegin                00454fe8     zle_main.o
 0004:00007fec       _gotmult                   00454fec     zle_main.o
 0004:00007ff0       _gotvibufspec              00454ff0     zle_main.o
 0004:00007ff8       _undos                     00454ff8     zle_main.o
 0004:000084f8       _lastline                  004554f8     zle_main.o
 0004:000084fc       _undoct                    004554fc     zle_main.o
 0004:00008500       _lastcs                    00455500     zle_main.o
 0004:00008504       _lastll                    00455504     zle_main.o
 0004:00008508       _visrchstr                 00455508     zle_main.o
 0004:0000850c       _visrchsense               0045550c     zle_main.o
 0004:00008510       _bindtab                   00455510     zle_main.o
 0004:00008514       _mainbindtab               00455514     zle_main.o
 0004:00008518       _altbindtab                00455518     zle_main.o
 0004:00008918       _cutbuf                    00455918     zle_main.o
 0004:00008928       _kring                     00455928     zle_main.o
 0004:00008988       _kringnum                  00455988     zle_main.o
 0004:00008990       _vibuf                     00455990     zle_main.o
 0004:0000933c       ??_C@_0BG@GKIJ@error?5on?5TTY?5read?3?5?$CFe?$AA@ 0045633c     zle_main.o
 0004:00009354       ??_C@_0CM@NGHO@string?5inserting?5another?5one?5too@ 00456354     zle_main.o
 0004:00009380       ??_C@_09OFOC@execute?3?5?$AA@ 00456380     zle_main.o
 0004:0000938c       ??_C@_02BAMF@?$BLq?$AA@    0045638c     zle_main.o
 0004:00009390       ??_C@_02CCDF@?$BI?$BI?$AA@ 00456390     zle_main.o
 0004:00009394       ??_C@_02IBGG@?$BIu?$AA@    00456394     zle_main.o
 0004:00009398       ??_C@_02NEID@?$BIr?$AA@    00456398     zle_main.o
 0004:0000939c       ??_C@_02HOBE@?$BIs?$AA@    0045639c     zle_main.o
 0004:000093a0       ??_C@_02IKND@?$BI?$AC?$AA@ 004563a0     zle_main.o
 0004:000093a4       ??_C@_02NOGL@?$BI?6?$AA@   004563a4     zle_main.o
 0004:000093a8       ??_C@_02IJPP@?$BI?$BG?$AA@ 004563a8     zle_main.o
 0004:000093ac       ??_C@_02HGEG@?$BI?$BF?$AA@ 004563ac     zle_main.o
 0004:000093b0       ??_C@_02NOKA@?$BI?$AP?$AA@ 004563b0     zle_main.o
 0004:000093b4       ??_C@_02CAIP@?$BI?$AG?$AA@ 004563b4     zle_main.o
 0004:000093b8       ??_C@_02HEPM@?$BI?$AL?$AA@ 004563b8     zle_main.o
 0004:000093bc       ??_C@_02HEDH@?$BI?$AO?$AA@ 004563bc     zle_main.o
 0004:000093c0       ??_C@_02CPNI@?$BIG?$AA@    004563c0     zle_main.o
 0004:000093c4       ??_C@_02HNDI@?$BIg?$AA@    004563c4     zle_main.o
 0004:000093c8       ??_C@_02IMIL@?$BI?$CK?$AA@ 004563c8     zle_main.o
 0004:000093cc       ??_C@_01PNMI@?$BI?$AA@     004563cc     zle_main.o
 0004:000093d0       ??_C@_01CHB@?$BL?$AA@      004563d0     zle_main.o
 0004:000093d4       ??_C@_03PJKN@?$BL?$FLB?$AA@ 004563d4     zle_main.o
 0004:000093d8       ??_C@_03GBE@?$BL?$FLA?$AA@ 004563d8     zle_main.o
 0004:000093dc       ??_C@_03GNP@?$BL?$FLD?$AA@ 004563dc     zle_main.o
 0004:000093e0       ??_C@_03FDDK@?$BL?$FLC?$AA@ 004563e0     zle_main.o
 0004:000093e4       ??_C@_02EDLD@?$BL?$FL?$AA@ 004563e4     zle_main.o
 0004:000093e8       ??_C@_06LCAP@EDITOR?$AA@   004563e8     zle_main.o
 0004:000093f0       ??_C@_06NAGF@VISUAL?$AA@   004563f0     zle_main.o
 0004:000093f8       ??_C@_02PIGK@?$FO?$DP?$AA@ 004563f8     zle_main.o
 0004:000093fc       ??_C@_03EJMJ@?$FO?$CFc?$AA@ 004563fc     zle_main.o
 0004:00009400       ??_C@_03CJEN@?2M?9?$AA@    00456400     zle_main.o
 0004:00009404       ??_C@_0CJ@DNJE@?9N?5cannot?5be?5combined?5with?5other@ 00456404     zle_main.o
 0004:00009430       ??_C@_0BH@HBKN@in?9string?5is?5not?5bound?$AA@ 00456430     zle_main.o
 0004:00009448       ??_C@_0BH@PDCF@undefined?5function?3?5?$CFs?$AA@ 00456448     zle_main.o
 0004:00009460       ??_C@_04HIGM@?7?$CFs?6?$AA@ 00456460     zle_main.o
 0004:00009468       ??_C@_04PNBL@?5to?5?$AA@   00456468     zle_main.o
 0004:00009470       ??_C@_0BF@KHEF@incompatible?5options?$AA@ 00456470     zle_main.o
 0004:00009488       ??_C@_0BI@HACM@Describe?5key?5briefly?3?5_?$AA@ 00456488     zle_main.o
 0004:000094a0       ??_C@_0BD@INB@?$CFs?5is?5on?5many?5keys?$AA@ 004564a0     zle_main.o
 0004:000094b4       ??_C@_0BG@JIHC@?5not?5bound?5to?5any?5key?$AA@ 004564b4     zle_main.o
 0004:000094cc       ??_C@_03LFMJ@?5on?$AA@     004564cc     zle_main.o
 0004:000094d0       ??_C@_05NPDP@?$CFs?5is?$AA@ 004564d0     zle_main.o
 0004:000094d8       ??_C@_0L@EAEO@Where?5is?3?5?$AA@ 004564d8     zle_main.o
 0004:000094e4       ??_C@_02IMGE@sg?$AA@       004564e4     zle_misc.o
 0004:000094e8       ??_C@_02PLJL@ug?$AA@       004564e8     zle_misc.o
 0004:000094ec       ??_C@_08KCKH@?$CFk?3?$CFM?3?$CFS?$AA@ 004564ec     zle_misc.o
 0004:000094f8       ??_C@_08DPII@?$CFy?9?$CFm?9?$CFd?$AA@ 004564f8     zle_misc.o
 0004:00009504       ??_C@_05KAHN@?$CFk?3?$CFM?$AA@ 00456504     zle_misc.o
 0004:0000950c       ??_C@_08BBCI@?$CFm?1?$CFd?1?$CFy?$AA@ 0045650c     zle_misc.o
 0004:00009518       ??_C@_05NDOD@?$CFa?5?$CFe?$AA@ 00456518     zle_misc.o
 0004:00009520       ??_C@_07PEGN@?$CFl?3?$CFM?$CFp?$AA@ 00456520     zle_misc.o
 0004:00009528       _nbuf                      00456528     zle_refresh.o
 0004:0000952c       _obuf                      0045652c     zle_refresh.o
 0004:00009540       _clearf                    00456540     zle_refresh.o
 0004:00009544       ??_C@_05EIPA@?$DO?4?4?4?4?$AA@ 00456544     zle_refresh.o
 0004:0000954c       ??_C@_08BPME@?5?$DM?4?4?4?4?$DO?5?$AA@ 0045654c     zle_refresh.o
 0004:00009558       ??_C@_07CGFM@?5?$DM?4?4?4?4?5?$AA@ 00456558     zle_refresh.o
 0004:0000956c       ??_C@_06JJGE@foo?5?$CFs?$AA@ 0045656c     zle_tricky.o
 0004:00009574       ??_C@_01PFJK@?$HO?$AA@     00456574     zle_tricky.o
 0004:00009578       ??_C@_02EEEE@?4?1?$AA@     00456578     zle_tricky.o
 0004:0000957c       ??_C@_0N@HBAM@?$CFc?$CFs?$CFs?$CFs?$CFs?$CFs?$AA@ 0045657c     zle_tricky.o
 0004:0000958c       ??_C@_08CKFD@?$CFs?$CFs?$CFs?$CFs?$AA@ 0045658c     zle_tricky.o
 0004:00009598       ??_C@_0L@NLIF@?$CFs?$CFs?$CFs?$CFs?$CFs?$AA@ 00456598     zle_tricky.o
 0004:000095a4       ??_C@_06KKCN@?$CFs?$CFs?$CFs?$AA@ 004565a4     zle_tricky.o
 0004:000095ac       ??_C@_0CP@CHHM@zsh?3?5do?5you?5wish?5to?5see?5all?5?$CFn?5p@ 004565ac     zle_tricky.o
 0004:000095dc       ??_C@_06CFKB@?$CFd?$CJ?5?$CFs?$AA@ 004565dc     zle_tricky.o
 0004:000095e4       ??_C@_0CC@DGOC@press?5a?5lowercase?5key?5to?5continu@ 004565e4     zle_vi.o
 0004:00009608       _gdwPlatform               00456608     support.o
 0004:00009614       _def_ext                   00456614     support.o
 0004:00009618       ??_C@_0BF@KLKJ@?4com?$DL?4exe?$DL?4cmd?$DL?4bat?$DL?$AA@ 00456618     support.o
 0004:00009630       ??_C@_0BB@JDIG@Unknown?5platform?$AA@ 00456630     support.o
 0004:00009644       ??_C@_0BJ@GNMP@This?5should?5never?5happen?$AA@ 00456644     support.o
 0004:00009660       ??_C@_0M@IGPD@USERPROFILE?$AA@ 00456660     support.o
 0004:0000966c       ??_C@_08MAPG@HOMEPATH?$AA@ 0045666c     support.o
 0004:00009678       ??_C@_09ELEN@HOMEDRIVE?$AA@ 00456678     support.o
 0004:00009684       ??_C@_0BE@NONE@GetVersionEx?5failed?$AA@ 00456684     support.o
 0004:00009698       ??_C@_0L@ONNH@?$CFs?1command?$AA@ 00456698     support.o
 0004:000096a4       ??_C@_06LMKP@c?3?1bin?$AA@ 004566a4     support.o
 0004:000096ac       ??_C@_09NFMB@?$CFs?1system?$AA@ 004566ac     support.o
 0004:000096b8       ??_C@_0M@GPCO@?$CFs?1system32?$AA@ 004566b8     support.o
 0004:000096c4       ??_C@_05OCPE@bogus?$AA@    004566c4     support.o
 0004:000096cc       ??_C@_08IBF@?$CFs?$CFs?4EXE?$AA@ 004566cc     support.o
 0004:000096d8       ??_C@_07NJBH@ZSHROOT?$AA@  004566d8     support.o
 0004:000096e0       ??_C@_06IIGL@?$CFs?4EXE?$AA@ 004566e0     support.o
 0004:000096e8       ??_C@_0DD@JLA@Command?5line?5overflow?4?5There?5is?5@ 004566e8     support.o
 0004:0000971c       ??_C@_07IEI@PATHEXT?$AA@   0045671c     support.o
 0004:00009724       ??_C@_04HIKB@Path?$AA@     00456724     support.o
 0004:0000972c       ??_C@_0M@PLBH@ZSH_ISWIN95?$AA@ 0045672c     support.o
 0004:00009740       ??_C@_0BD@BAAH@youdonthavehomeset?$AA@ 00456740     bogus.o
 0004:00009754       ___h_con_alarm             00456754     io.o
 0004:00009758       ___h_con_int               00456758     io.o
 0004:0000975c       ??_C@_03COEA@NUL?$AA@      0045675c     io.o
 0004:00009760       ??_C@_04BAIL@?4EXE?$AA@    00456760     globals.o
 0004:00009768       _handlers                  00456768     signal.o
 0004:0000982c       ___halarm                  0045682c     signal.o
 0004:00009830       ___alarm_set               00456830     signal.o
 0004:000098a8       _termstr                   004568a8     termcap.o
 0004:000098ac       ??_C@_0BBL@KIBD@ansi?9pc?9color?3?7?3Co?$CD8?3NC?$CD3?3pa?$CD64?3@ 004568ac     termcap.o
 0004:000099c8       ??_C@_0BK@BJMA@virtual?5memory?5exhausted?6?$AA@ 004569c8     termcap.o
 0004:000099e4       ??_C@_0O@FJMA@ZSH_DONTSETCP?$AA@ 004569e4     console.o
 0004:000099f4       ??_C@_0BK@FDLC@Error?5?$CFd?5from?5setcursor?5?6?$AA@ 004569f4     console.o
 0004:00009a10       ??_C@_0BM@IGFO@Error?5?$CFd?5from?5writeconsole?6?$AA@ 00456a10     console.o
 0004:00009a2c       ??_C@_0BJ@FENO@Error?5from?5setcursor?5?$CFs?6?$AA@ 00456a2c     console.o
 0004:00009a48       ??_C@_0CB@OCH@Error?5from?5getconsolebufinfo?5?$CFs?6@ 00456a48     console.o
 0004:00009a6c       ??_C@_0BM@NLMC@Error?5from?5GetStdHandle?5?$CFs?6?$AA@ 00456a6c     console.o
 0004:00009a88       ??_C@_0BG@FJAL@Error?5from?5Scroll?5?$CFs?6?$AA@ 00456a88     console.o
 0004:00009aa0       ___gOpenFiles              00456aa0     stdio.o
 0004:00009ca0       ___gOpenFilesCopy          00456ca0     stdio.o
 0004:00009ea0       _my_stdin                  00456ea0     stdio.o
 0004:00009ea4       _my_stdout                 00456ea4     stdio.o
 0004:00009ea8       _my_stderr                 00456ea8     stdio.o
 0004:00009eac       ??_C@_06ENAM@?$CFs?4exe?$AA@ 00456eac     stdio.o
 0004:00009eb4       ??_C@_06CNEF@?$CFs?4cmd?$AA@ 00456eb4     stdio.o
 0004:00009ebc       ??_C@_06DJNN@?$CFs?4bat?$AA@ 00456ebc     stdio.o
 0004:00009ec4       ??_C@_06PODP@?$CFs?4com?$AA@ 00456ec4     stdio.o
 0004:00009ecc       ??_C@_03HNG@C?3?1?$AA@     00456ecc     stdio.o
 0004:00009ed0       _start_usage               00456ed0     ntbin.o
 0004:00009f90       ??_C@_0BO@HJPI@?$CFs?6See?5CMD?4EXE?5for?5more?5info?6?$AA@ 00456f90     ntbin.o
 0004:00009fb0       ??_C@_08HIOH@REALTIME?$AA@ 00456fb0     ntbin.o
 0004:00009fbc       ??_C@_04DJE@HIGH?$AA@      00456fbc     ntbin.o
 0004:00009fc4       ??_C@_06HDDE@NORMAL?$AA@   00456fc4     ntbin.o
 0004:00009fcc       ??_C@_03HKLE@LOW?$AA@      00456fcc     ntbin.o
 0004:00009fd0       ??_C@_06BMJG@SHARED?$AA@   00456fd0     ntbin.o
 0004:00009fd8       ??_C@_08FIPP@SEPARATE?$AA@ 00456fd8     ntbin.o
 0004:00009fe4       ??_C@_03OLFE@MAX?$AA@      00456fe4     ntbin.o
 0004:00009fe8       ??_C@_03IAC@MIN?$AA@       00456fe8     ntbin.o
 0004:00009fec       ??_C@_0BG@FPGD@Can?8t?5set?5title?5?$CFs?3?$CFs?$AA@ 00456fec     ntbin.o
 0004:0000a004       ??_C@_0BB@EHLF@String?5too?5long?6?$AA@ 00457004     ntbin.o
 0004:0000a018       ??_C@_0P@GBJN@ShellExecuteEx?$AA@ 00457018     ntbin.o
 0004:0000a028       ??_C@_0M@NLCI@Shell32?4dll?$AA@ 00457028     ntbin.o
 0004:0000a034       ??_C@_0BI@PNDP@Failed?5to?5start?5?$CFs?3?5?$CFs?6?$AA@ 00457034     ntbin.o
 0004:0000a04c       ??_C@_01HMO@?$CC?$AA@      0045704c     ntbin.o
 0004:0000a12c       ??_C@_09DPKL@?$CIunknown?$CJ?$AA@ 0045712c     ps.o
 0004:0000a138       ??_C@_04NFOM@?4exe?$AA@    00457138     ps.o
 0004:0000a140       ??_C@_06BMMB@_Total?$AA@   00457140     ps.o
 0004:0000a148       ??_C@_07CAMD@unknown?$AA@  00457148     ps.o
 0004:0000a150       ??_C@_0L@LCFK@id?5process?$AA@ 00457150     ps.o
 0004:0000a15c       ??_C@_07JMKN@process?$AA@  0045715c     ps.o
 0004:0000a164       ??_C@_08OKBE@Counters?$AA@ 00457164     ps.o
 0004:0000a170       ??_C@_07DCN@?$CFs?2?$CF03x?$AA@ 00457170     ps.o
 0004:0000a178       ??_C@_0DF@GPEA@software?2microsoft?2windows?5nt?2cu@ 00457178     ps.o
 0004:0000a1b0       ??_C@_0BJ@OKNM@CreateToolhelp32Snapshot?$AA@ 004571b0     ps.o
 0004:0000a1cc       ??_C@_0O@LDED@Process32Next?$AA@ 004571cc     ps.o
 0004:0000a1dc       ??_C@_0P@MPIA@Process32First?$AA@ 004571dc     ps.o
 0004:0000a1ec       ??_C@_0N@IDOE@kernel32?4dll?$AA@ 004571ec     ps.o
 0004:0000a1fc       ??_C@_0BD@ODHM@GetModuleBaseNameA?$AA@ 004571fc     ps.o
 0004:0000a210       ??_C@_0BF@FHJK@GetModuleFileNameExA?$AA@ 00457210     ps.o
 0004:0000a228       ??_C@_0BD@NMHD@EnumProcessModules?$AA@ 00457228     ps.o
 0004:0000a23c       ??_C@_0O@DOGP@EnumProcesses?$AA@ 0045723c     ps.o
 0004:0000a24c       ??_C@_09JBAA@psapi?4dll?$AA@ 0045724c     ps.o
 0004:0000a258       ??_C@_0BF@LOGP@0x?$CF08x?5?5?$CF?920s?5?$CF?930s?6?$AA@ 00457258     ps.o
 0004:0000a270       ??_C@_0BB@PLCP@?$CFu?5?5?$CF?920s?5?$CF?930s?6?$AA@ 00457270     ps.o
 0004:0000a284       ??_C@_0BE@PJPM@shutdown?5failed?5?$CFs?6?$AA@ 00457284     ps.o
 0004:0000a298       ??_C@_0BE@NFOF@SeShutdownPrivilege?$AA@ 00457298     ps.o
 0004:0000a2ac       ??_C@_0CM@GJGF@shutdown?3?5Specify?5?$CCnow?$CC?5to?5reall@ 004572ac     ps.o
 0004:0000a2d8       ??_C@_09IMFP@Usage?3?5?$CFs?$AA@ 004572d8     ps.o
 0004:0000a2e4       ??_C@_03BLPO@now?$AA@      004572e4     ps.o
 0004:0000a2e8       ??_C@_0DA@HFOH@Sorry?0?5this?5function?5is?5not?5supp@ 004572e8     ps.o
 0004:0000a318       _bookend2                  00457318     ntb2.o

 entry point at        0001:0003547f

 Static symbols

 0001:00037989       _tparam1                   00438989 f   tparam.o
 0001:00037c8d       _xmalloc                   00438c8d f   tparam.o
 0001:00037ca7       _memory_out                00438ca7 f   tparam.o
 0001:00037cc0       _xrealloc                  00438cc0 f   tparam.o
 0001:000376e7       _find_capability           004386e7 f   termcap.o
 0001:0003776c       _tgetst1                   0043876c f   termcap.o
 0001:00037852       _xmalloc                   00438852 f   termcap.o
 0001:00037ca7       _memory_out                00438ca7 f   tparam.o
 0001:000369da       _morecore                  004379da f   fork.o
 0001:00036bcb       _findbucket                00437bcb f   fork.o
 0001:00035777       _quoteProtect              00436777 f   support.o
 0001:000330d9       _startvitext               004340d9 f   zle_vi.o
 0001:000330ff       _startvichange             004340ff f   zle_vi.o
 0001:00027bd4       _printfuncbind             00428bd4 f   zle_main.o
 0001:000258c9       _set_isrch_spot            004268c9 f   zle_hist.o
 0001:00025979       _get_isrch_spot            00426979 f   zle_hist.o
 0001:00021117       _xsymlinks                 00422117 f   utils.o
 0001:0002134d       _finddir_scan              0042234d f   utils.o
 0001:0001b30e       _discard_input             0041c30e f   parse.o
 0001:0001850f       _push                      0041950f f   math.o
 0001:00015912       _cmd_or_math               00416912 f   lex.o
 0001:000163d5       _cmd_or_math_sub           004173d5 f   lex.o
 0001:00014b02       _set_clktck                00415b02 f   jobs.o
 0001:00013987       _shingetline               00414987 f   input.o
 0001:0000e12c       _exists                    0040f12c f   glob.o
 0001:0000e146       _addpath                   0040f146 f   glob.o
 0001:00000a3a       _printoptions              00401a3a f   builtin.o
 0001:00000f47       _setcurjob                 00401f47 f   builtin.o

 205 bytes saved through ICF

